ARM GAS  C:\Users\Dell\AppData\Local\Temp\cc9GLpXk.s 			page 1


   1              		.cpu cortex-m4
   2              		.arch armv7e-m
   3              		.fpu fpv4-sp-d16
   4              		.eabi_attribute 27, 1
   5              		.eabi_attribute 28, 1
   6              		.eabi_attribute 20, 1
   7              		.eabi_attribute 21, 1
   8              		.eabi_attribute 23, 3
   9              		.eabi_attribute 24, 1
  10              		.eabi_attribute 25, 1
  11              		.eabi_attribute 26, 1
  12              		.eabi_attribute 30, 1
  13              		.eabi_attribute 34, 1
  14              		.eabi_attribute 18, 4
  15              		.file	"stm32f4xx_hal_msp.c"
  16              		.text
  17              	.Ltext0:
  18              		.cfi_sections	.debug_frame
  19              		.file 1 "Core/Src/stm32f4xx_hal_msp.c"
  20              		.section	.text.HAL_MspInit,"ax",%progbits
  21              		.align	1
  22              		.global	HAL_MspInit
  23              		.syntax unified
  24              		.thumb
  25              		.thumb_func
  27              	HAL_MspInit:
  28              	.LFB134:
   1:Core/Src/stm32f4xx_hal_msp.c **** 
   2:Core/Src/stm32f4xx_hal_msp.c **** /* USER CODE BEGIN Header */
   3:Core/Src/stm32f4xx_hal_msp.c **** /**
   4:Core/Src/stm32f4xx_hal_msp.c ****   ******************************************************************************
   5:Core/Src/stm32f4xx_hal_msp.c ****   * @file         stm32f4xx_hal_msp.c
   6:Core/Src/stm32f4xx_hal_msp.c ****   * @brief        This file provides code for the MSP Initialization
   7:Core/Src/stm32f4xx_hal_msp.c ****   *               and de-Initialization codes.
   8:Core/Src/stm32f4xx_hal_msp.c ****   ******************************************************************************
   9:Core/Src/stm32f4xx_hal_msp.c ****   * @attention
  10:Core/Src/stm32f4xx_hal_msp.c ****   *
  11:Core/Src/stm32f4xx_hal_msp.c ****   * Copyright (c) 2024 STMicroelectronics.
  12:Core/Src/stm32f4xx_hal_msp.c ****   * All rights reserved.
  13:Core/Src/stm32f4xx_hal_msp.c ****   *
  14:Core/Src/stm32f4xx_hal_msp.c ****   * This software is licensed under terms that can be found in the LICENSE file
  15:Core/Src/stm32f4xx_hal_msp.c ****   * in the root directory of this software component.
  16:Core/Src/stm32f4xx_hal_msp.c ****   * If no LICENSE file comes with this software, it is provided AS-IS.
  17:Core/Src/stm32f4xx_hal_msp.c ****   *
  18:Core/Src/stm32f4xx_hal_msp.c ****   ******************************************************************************
  19:Core/Src/stm32f4xx_hal_msp.c ****   */
  20:Core/Src/stm32f4xx_hal_msp.c **** /* USER CODE END Header */
  21:Core/Src/stm32f4xx_hal_msp.c **** 
  22:Core/Src/stm32f4xx_hal_msp.c **** /* Includes ------------------------------------------------------------------*/
  23:Core/Src/stm32f4xx_hal_msp.c **** #include "main.h"
  24:Core/Src/stm32f4xx_hal_msp.c **** /* USER CODE BEGIN Includes */
  25:Core/Src/stm32f4xx_hal_msp.c **** 
  26:Core/Src/stm32f4xx_hal_msp.c **** /* USER CODE END Includes */
  27:Core/Src/stm32f4xx_hal_msp.c **** 
  28:Core/Src/stm32f4xx_hal_msp.c **** /* Private typedef -----------------------------------------------------------*/
  29:Core/Src/stm32f4xx_hal_msp.c **** /* USER CODE BEGIN TD */
  30:Core/Src/stm32f4xx_hal_msp.c **** 
ARM GAS  C:\Users\Dell\AppData\Local\Temp\cc9GLpXk.s 			page 2


  31:Core/Src/stm32f4xx_hal_msp.c **** /* USER CODE END TD */
  32:Core/Src/stm32f4xx_hal_msp.c **** 
  33:Core/Src/stm32f4xx_hal_msp.c **** /* Private define ------------------------------------------------------------*/
  34:Core/Src/stm32f4xx_hal_msp.c **** /* USER CODE BEGIN Define */
  35:Core/Src/stm32f4xx_hal_msp.c **** 
  36:Core/Src/stm32f4xx_hal_msp.c **** /* USER CODE END Define */
  37:Core/Src/stm32f4xx_hal_msp.c **** 
  38:Core/Src/stm32f4xx_hal_msp.c **** /* Private macro -------------------------------------------------------------*/
  39:Core/Src/stm32f4xx_hal_msp.c **** /* USER CODE BEGIN Macro */
  40:Core/Src/stm32f4xx_hal_msp.c **** 
  41:Core/Src/stm32f4xx_hal_msp.c **** /* USER CODE END Macro */
  42:Core/Src/stm32f4xx_hal_msp.c **** 
  43:Core/Src/stm32f4xx_hal_msp.c **** /* Private variables ---------------------------------------------------------*/
  44:Core/Src/stm32f4xx_hal_msp.c **** /* USER CODE BEGIN PV */
  45:Core/Src/stm32f4xx_hal_msp.c **** 
  46:Core/Src/stm32f4xx_hal_msp.c **** /* USER CODE END PV */
  47:Core/Src/stm32f4xx_hal_msp.c **** 
  48:Core/Src/stm32f4xx_hal_msp.c **** /* Private function prototypes -----------------------------------------------*/
  49:Core/Src/stm32f4xx_hal_msp.c **** /* USER CODE BEGIN PFP */
  50:Core/Src/stm32f4xx_hal_msp.c **** 
  51:Core/Src/stm32f4xx_hal_msp.c **** /* USER CODE END PFP */
  52:Core/Src/stm32f4xx_hal_msp.c **** 
  53:Core/Src/stm32f4xx_hal_msp.c **** /* External functions --------------------------------------------------------*/
  54:Core/Src/stm32f4xx_hal_msp.c **** /* USER CODE BEGIN ExternalFunctions */
  55:Core/Src/stm32f4xx_hal_msp.c **** 
  56:Core/Src/stm32f4xx_hal_msp.c **** /* USER CODE END ExternalFunctions */
  57:Core/Src/stm32f4xx_hal_msp.c **** 
  58:Core/Src/stm32f4xx_hal_msp.c **** /* USER CODE BEGIN 0 */
  59:Core/Src/stm32f4xx_hal_msp.c **** 
  60:Core/Src/stm32f4xx_hal_msp.c **** /* USER CODE END 0 */
  61:Core/Src/stm32f4xx_hal_msp.c **** /**
  62:Core/Src/stm32f4xx_hal_msp.c ****   * Initializes the Global MSP.
  63:Core/Src/stm32f4xx_hal_msp.c ****   */
  64:Core/Src/stm32f4xx_hal_msp.c **** void HAL_MspInit(void)
  65:Core/Src/stm32f4xx_hal_msp.c **** {
  29              		.loc 1 65 1 view -0
  30              		.cfi_startproc
  31              		@ args = 0, pretend = 0, frame = 8
  32              		@ frame_needed = 0, uses_anonymous_args = 0
  33              		@ link register save eliminated.
  34 0000 82B0     		sub	sp, sp, #8
  35              	.LCFI0:
  36              		.cfi_def_cfa_offset 8
  66:Core/Src/stm32f4xx_hal_msp.c **** 
  67:Core/Src/stm32f4xx_hal_msp.c ****   /* USER CODE BEGIN MspInit 0 */
  68:Core/Src/stm32f4xx_hal_msp.c **** 
  69:Core/Src/stm32f4xx_hal_msp.c ****   /* USER CODE END MspInit 0 */
  70:Core/Src/stm32f4xx_hal_msp.c **** 
  71:Core/Src/stm32f4xx_hal_msp.c ****   __HAL_RCC_SYSCFG_CLK_ENABLE();
  37              		.loc 1 71 3 view .LVU1
  38              	.LBB2:
  39              		.loc 1 71 3 view .LVU2
  40 0002 0021     		movs	r1, #0
  41 0004 0091     		str	r1, [sp]
  42              		.loc 1 71 3 view .LVU3
  43 0006 0B4B     		ldr	r3, .L3
  44 0008 5A6C     		ldr	r2, [r3, #68]
ARM GAS  C:\Users\Dell\AppData\Local\Temp\cc9GLpXk.s 			page 3


  45 000a 42F48042 		orr	r2, r2, #16384
  46 000e 5A64     		str	r2, [r3, #68]
  47              		.loc 1 71 3 view .LVU4
  48 0010 5A6C     		ldr	r2, [r3, #68]
  49 0012 02F48042 		and	r2, r2, #16384
  50 0016 0092     		str	r2, [sp]
  51              		.loc 1 71 3 view .LVU5
  52 0018 009A     		ldr	r2, [sp]
  53              	.LBE2:
  54              		.loc 1 71 3 view .LVU6
  72:Core/Src/stm32f4xx_hal_msp.c ****   __HAL_RCC_PWR_CLK_ENABLE();
  55              		.loc 1 72 3 view .LVU7
  56              	.LBB3:
  57              		.loc 1 72 3 view .LVU8
  58 001a 0191     		str	r1, [sp, #4]
  59              		.loc 1 72 3 view .LVU9
  60 001c 1A6C     		ldr	r2, [r3, #64]
  61 001e 42F08052 		orr	r2, r2, #268435456
  62 0022 1A64     		str	r2, [r3, #64]
  63              		.loc 1 72 3 view .LVU10
  64 0024 1B6C     		ldr	r3, [r3, #64]
  65 0026 03F08053 		and	r3, r3, #268435456
  66 002a 0193     		str	r3, [sp, #4]
  67              		.loc 1 72 3 view .LVU11
  68 002c 019B     		ldr	r3, [sp, #4]
  69              	.LBE3:
  70              		.loc 1 72 3 view .LVU12
  73:Core/Src/stm32f4xx_hal_msp.c **** 
  74:Core/Src/stm32f4xx_hal_msp.c ****   /* System interrupt init*/
  75:Core/Src/stm32f4xx_hal_msp.c **** 
  76:Core/Src/stm32f4xx_hal_msp.c ****   /* USER CODE BEGIN MspInit 1 */
  77:Core/Src/stm32f4xx_hal_msp.c **** 
  78:Core/Src/stm32f4xx_hal_msp.c ****   /* USER CODE END MspInit 1 */
  79:Core/Src/stm32f4xx_hal_msp.c **** }
  71              		.loc 1 79 1 is_stmt 0 view .LVU13
  72 002e 02B0     		add	sp, sp, #8
  73              	.LCFI1:
  74              		.cfi_def_cfa_offset 0
  75              		@ sp needed
  76 0030 7047     		bx	lr
  77              	.L4:
  78 0032 00BF     		.align	2
  79              	.L3:
  80 0034 00380240 		.word	1073887232
  81              		.cfi_endproc
  82              	.LFE134:
  84              		.section	.text.HAL_UART_MspInit,"ax",%progbits
  85              		.align	1
  86              		.global	HAL_UART_MspInit
  87              		.syntax unified
  88              		.thumb
  89              		.thumb_func
  91              	HAL_UART_MspInit:
  92              	.LVL0:
  93              	.LFB135:
  80:Core/Src/stm32f4xx_hal_msp.c **** 
  81:Core/Src/stm32f4xx_hal_msp.c **** /**
ARM GAS  C:\Users\Dell\AppData\Local\Temp\cc9GLpXk.s 			page 4


  82:Core/Src/stm32f4xx_hal_msp.c **** * @brief UART MSP Initialization
  83:Core/Src/stm32f4xx_hal_msp.c **** * This function configures the hardware resources used in this example
  84:Core/Src/stm32f4xx_hal_msp.c **** * @param huart: UART handle pointer
  85:Core/Src/stm32f4xx_hal_msp.c **** * @retval None
  86:Core/Src/stm32f4xx_hal_msp.c **** */
  87:Core/Src/stm32f4xx_hal_msp.c **** void HAL_UART_MspInit(UART_HandleTypeDef* huart)
  88:Core/Src/stm32f4xx_hal_msp.c **** {
  94              		.loc 1 88 1 is_stmt 1 view -0
  95              		.cfi_startproc
  96              		@ args = 0, pretend = 0, frame = 40
  97              		@ frame_needed = 0, uses_anonymous_args = 0
  98              		.loc 1 88 1 is_stmt 0 view .LVU15
  99 0000 00B5     		push	{lr}
 100              	.LCFI2:
 101              		.cfi_def_cfa_offset 4
 102              		.cfi_offset 14, -4
 103 0002 8BB0     		sub	sp, sp, #44
 104              	.LCFI3:
 105              		.cfi_def_cfa_offset 48
  89:Core/Src/stm32f4xx_hal_msp.c ****   GPIO_InitTypeDef GPIO_InitStruct = {0};
 106              		.loc 1 89 3 is_stmt 1 view .LVU16
 107              		.loc 1 89 20 is_stmt 0 view .LVU17
 108 0004 0023     		movs	r3, #0
 109 0006 0593     		str	r3, [sp, #20]
 110 0008 0693     		str	r3, [sp, #24]
 111 000a 0793     		str	r3, [sp, #28]
 112 000c 0893     		str	r3, [sp, #32]
 113 000e 0993     		str	r3, [sp, #36]
  90:Core/Src/stm32f4xx_hal_msp.c ****   if(huart->Instance==USART2)
 114              		.loc 1 90 3 is_stmt 1 view .LVU18
 115              		.loc 1 90 11 is_stmt 0 view .LVU19
 116 0010 0368     		ldr	r3, [r0]
 117              		.loc 1 90 5 view .LVU20
 118 0012 274A     		ldr	r2, .L11
 119 0014 9342     		cmp	r3, r2
 120 0016 05D0     		beq	.L9
  91:Core/Src/stm32f4xx_hal_msp.c ****   {
  92:Core/Src/stm32f4xx_hal_msp.c ****   /* USER CODE BEGIN USART2_MspInit 0 */
  93:Core/Src/stm32f4xx_hal_msp.c **** 
  94:Core/Src/stm32f4xx_hal_msp.c ****   /* USER CODE END USART2_MspInit 0 */
  95:Core/Src/stm32f4xx_hal_msp.c ****     /* Peripheral clock enable */
  96:Core/Src/stm32f4xx_hal_msp.c ****     __HAL_RCC_USART2_CLK_ENABLE();
  97:Core/Src/stm32f4xx_hal_msp.c **** 
  98:Core/Src/stm32f4xx_hal_msp.c ****     __HAL_RCC_GPIOA_CLK_ENABLE();
  99:Core/Src/stm32f4xx_hal_msp.c ****     /**USART2 GPIO Configuration
 100:Core/Src/stm32f4xx_hal_msp.c ****     PA2     ------> USART2_TX
 101:Core/Src/stm32f4xx_hal_msp.c ****     PA3     ------> USART2_RX
 102:Core/Src/stm32f4xx_hal_msp.c ****     */
 103:Core/Src/stm32f4xx_hal_msp.c ****     GPIO_InitStruct.Pin = GPIO_PIN_2|GPIO_PIN_3;
 104:Core/Src/stm32f4xx_hal_msp.c ****     GPIO_InitStruct.Mode = GPIO_MODE_AF_PP;
 105:Core/Src/stm32f4xx_hal_msp.c ****     GPIO_InitStruct.Pull = GPIO_NOPULL;
 106:Core/Src/stm32f4xx_hal_msp.c ****     GPIO_InitStruct.Speed = GPIO_SPEED_FREQ_VERY_HIGH;
 107:Core/Src/stm32f4xx_hal_msp.c ****     GPIO_InitStruct.Alternate = GPIO_AF7_USART2;
 108:Core/Src/stm32f4xx_hal_msp.c ****     HAL_GPIO_Init(GPIOA, &GPIO_InitStruct);
 109:Core/Src/stm32f4xx_hal_msp.c **** 
 110:Core/Src/stm32f4xx_hal_msp.c ****   /* USER CODE BEGIN USART2_MspInit 1 */
 111:Core/Src/stm32f4xx_hal_msp.c **** 
ARM GAS  C:\Users\Dell\AppData\Local\Temp\cc9GLpXk.s 			page 5


 112:Core/Src/stm32f4xx_hal_msp.c ****   /* USER CODE END USART2_MspInit 1 */
 113:Core/Src/stm32f4xx_hal_msp.c ****   }
 114:Core/Src/stm32f4xx_hal_msp.c ****   else if(huart->Instance==USART6)
 121              		.loc 1 114 8 is_stmt 1 view .LVU21
 122              		.loc 1 114 10 is_stmt 0 view .LVU22
 123 0018 264A     		ldr	r2, .L11+4
 124 001a 9342     		cmp	r3, r2
 125 001c 25D0     		beq	.L10
 126              	.LVL1:
 127              	.L5:
 115:Core/Src/stm32f4xx_hal_msp.c ****   {
 116:Core/Src/stm32f4xx_hal_msp.c ****   /* USER CODE BEGIN USART6_MspInit 0 */
 117:Core/Src/stm32f4xx_hal_msp.c **** 
 118:Core/Src/stm32f4xx_hal_msp.c ****   /* USER CODE END USART6_MspInit 0 */
 119:Core/Src/stm32f4xx_hal_msp.c ****     /* Peripheral clock enable */
 120:Core/Src/stm32f4xx_hal_msp.c ****     __HAL_RCC_USART6_CLK_ENABLE();
 121:Core/Src/stm32f4xx_hal_msp.c **** 
 122:Core/Src/stm32f4xx_hal_msp.c ****     __HAL_RCC_GPIOC_CLK_ENABLE();
 123:Core/Src/stm32f4xx_hal_msp.c ****     /**USART6 GPIO Configuration
 124:Core/Src/stm32f4xx_hal_msp.c ****     PC6     ------> USART6_TX
 125:Core/Src/stm32f4xx_hal_msp.c ****     PC7     ------> USART6_RX
 126:Core/Src/stm32f4xx_hal_msp.c ****     */
 127:Core/Src/stm32f4xx_hal_msp.c ****     GPIO_InitStruct.Pin = GPIO_PIN_6|GPIO_PIN_7;
 128:Core/Src/stm32f4xx_hal_msp.c ****     GPIO_InitStruct.Mode = GPIO_MODE_AF_PP;
 129:Core/Src/stm32f4xx_hal_msp.c ****     GPIO_InitStruct.Pull = GPIO_NOPULL;
 130:Core/Src/stm32f4xx_hal_msp.c ****     GPIO_InitStruct.Speed = GPIO_SPEED_FREQ_VERY_HIGH;
 131:Core/Src/stm32f4xx_hal_msp.c ****     GPIO_InitStruct.Alternate = GPIO_AF8_USART6;
 132:Core/Src/stm32f4xx_hal_msp.c ****     HAL_GPIO_Init(GPIOC, &GPIO_InitStruct);
 133:Core/Src/stm32f4xx_hal_msp.c **** 
 134:Core/Src/stm32f4xx_hal_msp.c ****   /* USER CODE BEGIN USART6_MspInit 1 */
 135:Core/Src/stm32f4xx_hal_msp.c **** 
 136:Core/Src/stm32f4xx_hal_msp.c ****   /* USER CODE END USART6_MspInit 1 */
 137:Core/Src/stm32f4xx_hal_msp.c ****   }
 138:Core/Src/stm32f4xx_hal_msp.c **** 
 139:Core/Src/stm32f4xx_hal_msp.c **** }
 128              		.loc 1 139 1 view .LVU23
 129 001e 0BB0     		add	sp, sp, #44
 130              	.LCFI4:
 131              		.cfi_remember_state
 132              		.cfi_def_cfa_offset 4
 133              		@ sp needed
 134 0020 5DF804FB 		ldr	pc, [sp], #4
 135              	.LVL2:
 136              	.L9:
 137              	.LCFI5:
 138              		.cfi_restore_state
  96:Core/Src/stm32f4xx_hal_msp.c **** 
 139              		.loc 1 96 5 is_stmt 1 view .LVU24
 140              	.LBB4:
  96:Core/Src/stm32f4xx_hal_msp.c **** 
 141              		.loc 1 96 5 view .LVU25
 142 0024 0021     		movs	r1, #0
 143 0026 0191     		str	r1, [sp, #4]
  96:Core/Src/stm32f4xx_hal_msp.c **** 
 144              		.loc 1 96 5 view .LVU26
 145 0028 234B     		ldr	r3, .L11+8
 146 002a 1A6C     		ldr	r2, [r3, #64]
ARM GAS  C:\Users\Dell\AppData\Local\Temp\cc9GLpXk.s 			page 6


 147 002c 42F40032 		orr	r2, r2, #131072
 148 0030 1A64     		str	r2, [r3, #64]
  96:Core/Src/stm32f4xx_hal_msp.c **** 
 149              		.loc 1 96 5 view .LVU27
 150 0032 1A6C     		ldr	r2, [r3, #64]
 151 0034 02F40032 		and	r2, r2, #131072
 152 0038 0192     		str	r2, [sp, #4]
  96:Core/Src/stm32f4xx_hal_msp.c **** 
 153              		.loc 1 96 5 view .LVU28
 154 003a 019A     		ldr	r2, [sp, #4]
 155              	.LBE4:
  96:Core/Src/stm32f4xx_hal_msp.c **** 
 156              		.loc 1 96 5 view .LVU29
  98:Core/Src/stm32f4xx_hal_msp.c ****     /**USART2 GPIO Configuration
 157              		.loc 1 98 5 view .LVU30
 158              	.LBB5:
  98:Core/Src/stm32f4xx_hal_msp.c ****     /**USART2 GPIO Configuration
 159              		.loc 1 98 5 view .LVU31
 160 003c 0291     		str	r1, [sp, #8]
  98:Core/Src/stm32f4xx_hal_msp.c ****     /**USART2 GPIO Configuration
 161              		.loc 1 98 5 view .LVU32
 162 003e 1A6B     		ldr	r2, [r3, #48]
 163 0040 42F00102 		orr	r2, r2, #1
 164 0044 1A63     		str	r2, [r3, #48]
  98:Core/Src/stm32f4xx_hal_msp.c ****     /**USART2 GPIO Configuration
 165              		.loc 1 98 5 view .LVU33
 166 0046 1B6B     		ldr	r3, [r3, #48]
 167 0048 03F00103 		and	r3, r3, #1
 168 004c 0293     		str	r3, [sp, #8]
  98:Core/Src/stm32f4xx_hal_msp.c ****     /**USART2 GPIO Configuration
 169              		.loc 1 98 5 view .LVU34
 170 004e 029B     		ldr	r3, [sp, #8]
 171              	.LBE5:
  98:Core/Src/stm32f4xx_hal_msp.c ****     /**USART2 GPIO Configuration
 172              		.loc 1 98 5 view .LVU35
 103:Core/Src/stm32f4xx_hal_msp.c ****     GPIO_InitStruct.Mode = GPIO_MODE_AF_PP;
 173              		.loc 1 103 5 view .LVU36
 103:Core/Src/stm32f4xx_hal_msp.c ****     GPIO_InitStruct.Mode = GPIO_MODE_AF_PP;
 174              		.loc 1 103 25 is_stmt 0 view .LVU37
 175 0050 0C23     		movs	r3, #12
 176 0052 0593     		str	r3, [sp, #20]
 104:Core/Src/stm32f4xx_hal_msp.c ****     GPIO_InitStruct.Pull = GPIO_NOPULL;
 177              		.loc 1 104 5 is_stmt 1 view .LVU38
 104:Core/Src/stm32f4xx_hal_msp.c ****     GPIO_InitStruct.Pull = GPIO_NOPULL;
 178              		.loc 1 104 26 is_stmt 0 view .LVU39
 179 0054 0223     		movs	r3, #2
 180 0056 0693     		str	r3, [sp, #24]
 105:Core/Src/stm32f4xx_hal_msp.c ****     GPIO_InitStruct.Speed = GPIO_SPEED_FREQ_VERY_HIGH;
 181              		.loc 1 105 5 is_stmt 1 view .LVU40
 106:Core/Src/stm32f4xx_hal_msp.c ****     GPIO_InitStruct.Alternate = GPIO_AF7_USART2;
 182              		.loc 1 106 5 view .LVU41
 106:Core/Src/stm32f4xx_hal_msp.c ****     GPIO_InitStruct.Alternate = GPIO_AF7_USART2;
 183              		.loc 1 106 27 is_stmt 0 view .LVU42
 184 0058 0323     		movs	r3, #3
 185 005a 0893     		str	r3, [sp, #32]
 107:Core/Src/stm32f4xx_hal_msp.c ****     HAL_GPIO_Init(GPIOA, &GPIO_InitStruct);
 186              		.loc 1 107 5 is_stmt 1 view .LVU43
ARM GAS  C:\Users\Dell\AppData\Local\Temp\cc9GLpXk.s 			page 7


 107:Core/Src/stm32f4xx_hal_msp.c ****     HAL_GPIO_Init(GPIOA, &GPIO_InitStruct);
 187              		.loc 1 107 31 is_stmt 0 view .LVU44
 188 005c 0723     		movs	r3, #7
 189 005e 0993     		str	r3, [sp, #36]
 108:Core/Src/stm32f4xx_hal_msp.c **** 
 190              		.loc 1 108 5 is_stmt 1 view .LVU45
 191 0060 05A9     		add	r1, sp, #20
 192 0062 1648     		ldr	r0, .L11+12
 193              	.LVL3:
 108:Core/Src/stm32f4xx_hal_msp.c **** 
 194              		.loc 1 108 5 is_stmt 0 view .LVU46
 195 0064 FFF7FEFF 		bl	HAL_GPIO_Init
 196              	.LVL4:
 197 0068 D9E7     		b	.L5
 198              	.LVL5:
 199              	.L10:
 120:Core/Src/stm32f4xx_hal_msp.c **** 
 200              		.loc 1 120 5 is_stmt 1 view .LVU47
 201              	.LBB6:
 120:Core/Src/stm32f4xx_hal_msp.c **** 
 202              		.loc 1 120 5 view .LVU48
 203 006a 0021     		movs	r1, #0
 204 006c 0391     		str	r1, [sp, #12]
 120:Core/Src/stm32f4xx_hal_msp.c **** 
 205              		.loc 1 120 5 view .LVU49
 206 006e 124B     		ldr	r3, .L11+8
 207 0070 5A6C     		ldr	r2, [r3, #68]
 208 0072 42F02002 		orr	r2, r2, #32
 209 0076 5A64     		str	r2, [r3, #68]
 120:Core/Src/stm32f4xx_hal_msp.c **** 
 210              		.loc 1 120 5 view .LVU50
 211 0078 5A6C     		ldr	r2, [r3, #68]
 212 007a 02F02002 		and	r2, r2, #32
 213 007e 0392     		str	r2, [sp, #12]
 120:Core/Src/stm32f4xx_hal_msp.c **** 
 214              		.loc 1 120 5 view .LVU51
 215 0080 039A     		ldr	r2, [sp, #12]
 216              	.LBE6:
 120:Core/Src/stm32f4xx_hal_msp.c **** 
 217              		.loc 1 120 5 view .LVU52
 122:Core/Src/stm32f4xx_hal_msp.c ****     /**USART6 GPIO Configuration
 218              		.loc 1 122 5 view .LVU53
 219              	.LBB7:
 122:Core/Src/stm32f4xx_hal_msp.c ****     /**USART6 GPIO Configuration
 220              		.loc 1 122 5 view .LVU54
 221 0082 0491     		str	r1, [sp, #16]
 122:Core/Src/stm32f4xx_hal_msp.c ****     /**USART6 GPIO Configuration
 222              		.loc 1 122 5 view .LVU55
 223 0084 1A6B     		ldr	r2, [r3, #48]
 224 0086 42F00402 		orr	r2, r2, #4
 225 008a 1A63     		str	r2, [r3, #48]
 122:Core/Src/stm32f4xx_hal_msp.c ****     /**USART6 GPIO Configuration
 226              		.loc 1 122 5 view .LVU56
 227 008c 1B6B     		ldr	r3, [r3, #48]
 228 008e 03F00403 		and	r3, r3, #4
 229 0092 0493     		str	r3, [sp, #16]
 122:Core/Src/stm32f4xx_hal_msp.c ****     /**USART6 GPIO Configuration
ARM GAS  C:\Users\Dell\AppData\Local\Temp\cc9GLpXk.s 			page 8


 230              		.loc 1 122 5 view .LVU57
 231 0094 049B     		ldr	r3, [sp, #16]
 232              	.LBE7:
 122:Core/Src/stm32f4xx_hal_msp.c ****     /**USART6 GPIO Configuration
 233              		.loc 1 122 5 view .LVU58
 127:Core/Src/stm32f4xx_hal_msp.c ****     GPIO_InitStruct.Mode = GPIO_MODE_AF_PP;
 234              		.loc 1 127 5 view .LVU59
 127:Core/Src/stm32f4xx_hal_msp.c ****     GPIO_InitStruct.Mode = GPIO_MODE_AF_PP;
 235              		.loc 1 127 25 is_stmt 0 view .LVU60
 236 0096 C023     		movs	r3, #192
 237 0098 0593     		str	r3, [sp, #20]
 128:Core/Src/stm32f4xx_hal_msp.c ****     GPIO_InitStruct.Pull = GPIO_NOPULL;
 238              		.loc 1 128 5 is_stmt 1 view .LVU61
 128:Core/Src/stm32f4xx_hal_msp.c ****     GPIO_InitStruct.Pull = GPIO_NOPULL;
 239              		.loc 1 128 26 is_stmt 0 view .LVU62
 240 009a 0223     		movs	r3, #2
 241 009c 0693     		str	r3, [sp, #24]
 129:Core/Src/stm32f4xx_hal_msp.c ****     GPIO_InitStruct.Speed = GPIO_SPEED_FREQ_VERY_HIGH;
 242              		.loc 1 129 5 is_stmt 1 view .LVU63
 130:Core/Src/stm32f4xx_hal_msp.c ****     GPIO_InitStruct.Alternate = GPIO_AF8_USART6;
 243              		.loc 1 130 5 view .LVU64
 130:Core/Src/stm32f4xx_hal_msp.c ****     GPIO_InitStruct.Alternate = GPIO_AF8_USART6;
 244              		.loc 1 130 27 is_stmt 0 view .LVU65
 245 009e 0323     		movs	r3, #3
 246 00a0 0893     		str	r3, [sp, #32]
 131:Core/Src/stm32f4xx_hal_msp.c ****     HAL_GPIO_Init(GPIOC, &GPIO_InitStruct);
 247              		.loc 1 131 5 is_stmt 1 view .LVU66
 131:Core/Src/stm32f4xx_hal_msp.c ****     HAL_GPIO_Init(GPIOC, &GPIO_InitStruct);
 248              		.loc 1 131 31 is_stmt 0 view .LVU67
 249 00a2 0823     		movs	r3, #8
 250 00a4 0993     		str	r3, [sp, #36]
 132:Core/Src/stm32f4xx_hal_msp.c **** 
 251              		.loc 1 132 5 is_stmt 1 view .LVU68
 252 00a6 05A9     		add	r1, sp, #20
 253 00a8 0548     		ldr	r0, .L11+16
 254              	.LVL6:
 132:Core/Src/stm32f4xx_hal_msp.c **** 
 255              		.loc 1 132 5 is_stmt 0 view .LVU69
 256 00aa FFF7FEFF 		bl	HAL_GPIO_Init
 257              	.LVL7:
 258              		.loc 1 139 1 view .LVU70
 259 00ae B6E7     		b	.L5
 260              	.L12:
 261              		.align	2
 262              	.L11:
 263 00b0 00440040 		.word	1073759232
 264 00b4 00140140 		.word	1073812480
 265 00b8 00380240 		.word	1073887232
 266 00bc 00000240 		.word	1073872896
 267 00c0 00080240 		.word	1073874944
 268              		.cfi_endproc
 269              	.LFE135:
 271              		.section	.text.HAL_UART_MspDeInit,"ax",%progbits
 272              		.align	1
 273              		.global	HAL_UART_MspDeInit
 274              		.syntax unified
 275              		.thumb
ARM GAS  C:\Users\Dell\AppData\Local\Temp\cc9GLpXk.s 			page 9


 276              		.thumb_func
 278              	HAL_UART_MspDeInit:
 279              	.LVL8:
 280              	.LFB136:
 140:Core/Src/stm32f4xx_hal_msp.c **** 
 141:Core/Src/stm32f4xx_hal_msp.c **** /**
 142:Core/Src/stm32f4xx_hal_msp.c **** * @brief UART MSP De-Initialization
 143:Core/Src/stm32f4xx_hal_msp.c **** * This function freeze the hardware resources used in this example
 144:Core/Src/stm32f4xx_hal_msp.c **** * @param huart: UART handle pointer
 145:Core/Src/stm32f4xx_hal_msp.c **** * @retval None
 146:Core/Src/stm32f4xx_hal_msp.c **** */
 147:Core/Src/stm32f4xx_hal_msp.c **** void HAL_UART_MspDeInit(UART_HandleTypeDef* huart)
 148:Core/Src/stm32f4xx_hal_msp.c **** {
 281              		.loc 1 148 1 is_stmt 1 view -0
 282              		.cfi_startproc
 283              		@ args = 0, pretend = 0, frame = 0
 284              		@ frame_needed = 0, uses_anonymous_args = 0
 285              		.loc 1 148 1 is_stmt 0 view .LVU72
 286 0000 08B5     		push	{r3, lr}
 287              	.LCFI6:
 288              		.cfi_def_cfa_offset 8
 289              		.cfi_offset 3, -8
 290              		.cfi_offset 14, -4
 149:Core/Src/stm32f4xx_hal_msp.c ****   if(huart->Instance==USART2)
 291              		.loc 1 149 3 is_stmt 1 view .LVU73
 292              		.loc 1 149 11 is_stmt 0 view .LVU74
 293 0002 0368     		ldr	r3, [r0]
 294              		.loc 1 149 5 view .LVU75
 295 0004 0E4A     		ldr	r2, .L19
 296 0006 9342     		cmp	r3, r2
 297 0008 03D0     		beq	.L17
 150:Core/Src/stm32f4xx_hal_msp.c ****   {
 151:Core/Src/stm32f4xx_hal_msp.c ****   /* USER CODE BEGIN USART2_MspDeInit 0 */
 152:Core/Src/stm32f4xx_hal_msp.c **** 
 153:Core/Src/stm32f4xx_hal_msp.c ****   /* USER CODE END USART2_MspDeInit 0 */
 154:Core/Src/stm32f4xx_hal_msp.c ****     /* Peripheral clock disable */
 155:Core/Src/stm32f4xx_hal_msp.c ****     __HAL_RCC_USART2_CLK_DISABLE();
 156:Core/Src/stm32f4xx_hal_msp.c **** 
 157:Core/Src/stm32f4xx_hal_msp.c ****     /**USART2 GPIO Configuration
 158:Core/Src/stm32f4xx_hal_msp.c ****     PA2     ------> USART2_TX
 159:Core/Src/stm32f4xx_hal_msp.c ****     PA3     ------> USART2_RX
 160:Core/Src/stm32f4xx_hal_msp.c ****     */
 161:Core/Src/stm32f4xx_hal_msp.c ****     HAL_GPIO_DeInit(GPIOA, GPIO_PIN_2|GPIO_PIN_3);
 162:Core/Src/stm32f4xx_hal_msp.c **** 
 163:Core/Src/stm32f4xx_hal_msp.c ****   /* USER CODE BEGIN USART2_MspDeInit 1 */
 164:Core/Src/stm32f4xx_hal_msp.c **** 
 165:Core/Src/stm32f4xx_hal_msp.c ****   /* USER CODE END USART2_MspDeInit 1 */
 166:Core/Src/stm32f4xx_hal_msp.c ****   }
 167:Core/Src/stm32f4xx_hal_msp.c ****   else if(huart->Instance==USART6)
 298              		.loc 1 167 8 is_stmt 1 view .LVU76
 299              		.loc 1 167 10 is_stmt 0 view .LVU77
 300 000a 0E4A     		ldr	r2, .L19+4
 301 000c 9342     		cmp	r3, r2
 302 000e 0BD0     		beq	.L18
 303              	.LVL9:
 304              	.L13:
 168:Core/Src/stm32f4xx_hal_msp.c ****   {
ARM GAS  C:\Users\Dell\AppData\Local\Temp\cc9GLpXk.s 			page 10


 169:Core/Src/stm32f4xx_hal_msp.c ****   /* USER CODE BEGIN USART6_MspDeInit 0 */
 170:Core/Src/stm32f4xx_hal_msp.c **** 
 171:Core/Src/stm32f4xx_hal_msp.c ****   /* USER CODE END USART6_MspDeInit 0 */
 172:Core/Src/stm32f4xx_hal_msp.c ****     /* Peripheral clock disable */
 173:Core/Src/stm32f4xx_hal_msp.c ****     __HAL_RCC_USART6_CLK_DISABLE();
 174:Core/Src/stm32f4xx_hal_msp.c **** 
 175:Core/Src/stm32f4xx_hal_msp.c ****     /**USART6 GPIO Configuration
 176:Core/Src/stm32f4xx_hal_msp.c ****     PC6     ------> USART6_TX
 177:Core/Src/stm32f4xx_hal_msp.c ****     PC7     ------> USART6_RX
 178:Core/Src/stm32f4xx_hal_msp.c ****     */
 179:Core/Src/stm32f4xx_hal_msp.c ****     HAL_GPIO_DeInit(GPIOC, GPIO_PIN_6|GPIO_PIN_7);
 180:Core/Src/stm32f4xx_hal_msp.c **** 
 181:Core/Src/stm32f4xx_hal_msp.c ****   /* USER CODE BEGIN USART6_MspDeInit 1 */
 182:Core/Src/stm32f4xx_hal_msp.c **** 
 183:Core/Src/stm32f4xx_hal_msp.c ****   /* USER CODE END USART6_MspDeInit 1 */
 184:Core/Src/stm32f4xx_hal_msp.c ****   }
 185:Core/Src/stm32f4xx_hal_msp.c **** 
 186:Core/Src/stm32f4xx_hal_msp.c **** }
 305              		.loc 1 186 1 view .LVU78
 306 0010 08BD     		pop	{r3, pc}
 307              	.LVL10:
 308              	.L17:
 155:Core/Src/stm32f4xx_hal_msp.c **** 
 309              		.loc 1 155 5 is_stmt 1 view .LVU79
 310 0012 02F5FA32 		add	r2, r2, #128000
 311 0016 136C     		ldr	r3, [r2, #64]
 312 0018 23F40033 		bic	r3, r3, #131072
 313 001c 1364     		str	r3, [r2, #64]
 161:Core/Src/stm32f4xx_hal_msp.c **** 
 314              		.loc 1 161 5 view .LVU80
 315 001e 0C21     		movs	r1, #12
 316 0020 0948     		ldr	r0, .L19+8
 317              	.LVL11:
 161:Core/Src/stm32f4xx_hal_msp.c **** 
 318              		.loc 1 161 5 is_stmt 0 view .LVU81
 319 0022 FFF7FEFF 		bl	HAL_GPIO_DeInit
 320              	.LVL12:
 321 0026 F3E7     		b	.L13
 322              	.LVL13:
 323              	.L18:
 173:Core/Src/stm32f4xx_hal_msp.c **** 
 324              		.loc 1 173 5 is_stmt 1 view .LVU82
 325 0028 02F59232 		add	r2, r2, #74752
 326 002c 536C     		ldr	r3, [r2, #68]
 327 002e 23F02003 		bic	r3, r3, #32
 328 0032 5364     		str	r3, [r2, #68]
 179:Core/Src/stm32f4xx_hal_msp.c **** 
 329              		.loc 1 179 5 view .LVU83
 330 0034 C021     		movs	r1, #192
 331 0036 0548     		ldr	r0, .L19+12
 332              	.LVL14:
 179:Core/Src/stm32f4xx_hal_msp.c **** 
 333              		.loc 1 179 5 is_stmt 0 view .LVU84
 334 0038 FFF7FEFF 		bl	HAL_GPIO_DeInit
 335              	.LVL15:
 336              		.loc 1 186 1 view .LVU85
 337 003c E8E7     		b	.L13
ARM GAS  C:\Users\Dell\AppData\Local\Temp\cc9GLpXk.s 			page 11


 338              	.L20:
 339 003e 00BF     		.align	2
 340              	.L19:
 341 0040 00440040 		.word	1073759232
 342 0044 00140140 		.word	1073812480
 343 0048 00000240 		.word	1073872896
 344 004c 00080240 		.word	1073874944
 345              		.cfi_endproc
 346              	.LFE136:
 348              		.text
 349              	.Letext0:
 350              		.file 2 "C:\\ST\\STM32CubeCLT_1.16.0\\GNU-tools-for-STM32\\bin\\../lib/gcc/arm-none-eabi/12.3.1/..
 351              		.file 3 "C:\\ST\\STM32CubeCLT_1.16.0\\GNU-tools-for-STM32\\bin\\../lib/gcc/arm-none-eabi/12.3.1/..
 352              		.file 4 "Drivers/CMSIS/Device/ST/STM32F4xx/Include/stm32f407xx.h"
 353              		.file 5 "Drivers/STM32F4xx_HAL_Driver/Inc/stm32f4xx_hal_def.h"
 354              		.file 6 "Drivers/STM32F4xx_HAL_Driver/Inc/stm32f4xx_hal_gpio.h"
 355              		.file 7 "Drivers/STM32F4xx_HAL_Driver/Inc/stm32f4xx_hal_dma.h"
 356              		.file 8 "Drivers/STM32F4xx_HAL_Driver/Inc/stm32f4xx_hal_uart.h"
ARM GAS  C:\Users\Dell\AppData\Local\Temp\cc9GLpXk.s 			page 12

