ARM GAS  C:\Users\Dell\AppData\Local\Temp\cchSoRAE.s 			page 1


   1              		.cpu cortex-m3
   2              		.arch armv7-m
   3              		.fpu softvfp
   4              		.eabi_attribute 20, 1
   5              		.eabi_attribute 21, 1
   6              		.eabi_attribute 23, 3
   7              		.eabi_attribute 24, 1
   8              		.eabi_attribute 25, 1
   9              		.eabi_attribute 26, 1
  10              		.eabi_attribute 30, 1
  11              		.eabi_attribute 34, 1
  12              		.eabi_attribute 18, 4
  13              		.file	"BME280_STM32.c"
  14              		.text
  15              	.Ltext0:
  16              		.cfi_sections	.debug_frame
  17              		.file 1 "Core/Src/BME280_STM32.c"
  18              		.section	.text.TrimRead,"ax",%progbits
  19              		.align	1
  20              		.global	TrimRead
  21              		.syntax unified
  22              		.thumb
  23              		.thumb_func
  25              	TrimRead:
  26              	.LFB65:
   1:Core/Src/BME280_STM32.c **** /*
   2:Core/Src/BME280_STM32.c ****   *************************************************************************************************
   3:Core/Src/BME280_STM32.c ****   *************************************************************************************************
   4:Core/Src/BME280_STM32.c ****   *************************************************************************************************
   5:Core/Src/BME280_STM32.c **** 
   6:Core/Src/BME280_STM32.c ****   File:		  BME280_STM32.c
   7:Core/Src/BME280_STM32.c ****   Author:     ControllersTech.com
   8:Core/Src/BME280_STM32.c ****   Updated:    Dec 14, 2021
   9:Core/Src/BME280_STM32.c **** 
  10:Core/Src/BME280_STM32.c ****   *************************************************************************************************
  11:Core/Src/BME280_STM32.c ****   Copyright (C) 2017 ControllersTech.com
  12:Core/Src/BME280_STM32.c **** 
  13:Core/Src/BME280_STM32.c ****   This is a free software under the GNU license, you can redistribute it and/or modify it under the
  14:Core/Src/BME280_STM32.c ****   of the GNU General Public License version 3 as published by the Free Software Foundation.
  15:Core/Src/BME280_STM32.c ****   This software library is shared with public for educational purposes, without WARRANTY and Author
  16:Core/Src/BME280_STM32.c ****   or indirectly by this software, read more about this on the GNU General Public License.
  17:Core/Src/BME280_STM32.c **** 
  18:Core/Src/BME280_STM32.c ****   *************************************************************************************************
  19:Core/Src/BME280_STM32.c **** */
  20:Core/Src/BME280_STM32.c **** 
  21:Core/Src/BME280_STM32.c **** #include "BME280_STM32.h"
  22:Core/Src/BME280_STM32.c **** 
  23:Core/Src/BME280_STM32.c **** extern I2C_HandleTypeDef hi2c1;
  24:Core/Src/BME280_STM32.c **** #define BME280_I2C &hi2c1
  25:Core/Src/BME280_STM32.c **** 
  26:Core/Src/BME280_STM32.c **** #define SUPPORT_64BIT 1
  27:Core/Src/BME280_STM32.c **** //#define SUPPORT_32BIT 1
  28:Core/Src/BME280_STM32.c **** 
  29:Core/Src/BME280_STM32.c **** #define BME280_ADDRESS 0xEC  // SDIO is grounded, the 7 bit address is 0x76 and 8 bit address = 0x7
  30:Core/Src/BME280_STM32.c **** 
  31:Core/Src/BME280_STM32.c **** extern float Temperature, Pressure, Humidity;
  32:Core/Src/BME280_STM32.c **** 
ARM GAS  C:\Users\Dell\AppData\Local\Temp\cchSoRAE.s 			page 2


  33:Core/Src/BME280_STM32.c **** uint8_t chipID;
  34:Core/Src/BME280_STM32.c **** 
  35:Core/Src/BME280_STM32.c **** uint8_t TrimParam[36];
  36:Core/Src/BME280_STM32.c **** int32_t tRaw, pRaw, hRaw;
  37:Core/Src/BME280_STM32.c **** 
  38:Core/Src/BME280_STM32.c **** uint16_t dig_T1,  \
  39:Core/Src/BME280_STM32.c ****          dig_P1, \
  40:Core/Src/BME280_STM32.c ****          dig_H1, dig_H3;
  41:Core/Src/BME280_STM32.c **** 
  42:Core/Src/BME280_STM32.c **** int16_t  dig_T2, dig_T3, \
  43:Core/Src/BME280_STM32.c ****          dig_P2, dig_P3, dig_P4, dig_P5, dig_P6, dig_P7, dig_P8, dig_P9, \
  44:Core/Src/BME280_STM32.c **** 		 dig_H2,  dig_H4, dig_H5, dig_H6;
  45:Core/Src/BME280_STM32.c **** 
  46:Core/Src/BME280_STM32.c **** 
  47:Core/Src/BME280_STM32.c **** 
  48:Core/Src/BME280_STM32.c **** // Read the Trimming parameters saved in the NVM ROM of the device
  49:Core/Src/BME280_STM32.c **** void TrimRead(void)
  50:Core/Src/BME280_STM32.c **** {
  27              		.loc 1 50 1 view -0
  28              		.cfi_startproc
  29              		@ args = 0, pretend = 0, frame = 32
  30              		@ frame_needed = 0, uses_anonymous_args = 0
  31 0000 30B5     		push	{r4, r5, lr}
  32              	.LCFI0:
  33              		.cfi_def_cfa_offset 12
  34              		.cfi_offset 4, -12
  35              		.cfi_offset 5, -8
  36              		.cfi_offset 14, -4
  37 0002 8DB0     		sub	sp, sp, #52
  38              	.LCFI1:
  39              		.cfi_def_cfa_offset 64
  51:Core/Src/BME280_STM32.c **** 	uint8_t trimdata[32];
  40              		.loc 1 51 2 view .LVU1
  52:Core/Src/BME280_STM32.c **** 	// Read NVM from 0x88 to 0xA1
  53:Core/Src/BME280_STM32.c **** 	HAL_I2C_Mem_Read(BME280_I2C, BME280_ADDRESS, 0x88, 1, trimdata, 25, HAL_MAX_DELAY);
  41              		.loc 1 53 2 view .LVU2
  42 0004 4F4C     		ldr	r4, .L3
  43 0006 4FF0FF35 		mov	r5, #-1
  44 000a 0295     		str	r5, [sp, #8]
  45 000c 1923     		movs	r3, #25
  46 000e 0193     		str	r3, [sp, #4]
  47 0010 04AB     		add	r3, sp, #16
  48 0012 0093     		str	r3, [sp]
  49 0014 0123     		movs	r3, #1
  50 0016 8822     		movs	r2, #136
  51 0018 EC21     		movs	r1, #236
  52 001a 2046     		mov	r0, r4
  53 001c FFF7FEFF 		bl	HAL_I2C_Mem_Read
  54              	.LVL0:
  54:Core/Src/BME280_STM32.c **** 
  55:Core/Src/BME280_STM32.c **** 	// Read NVM from 0xE1 to 0xE7
  56:Core/Src/BME280_STM32.c **** 	HAL_I2C_Mem_Read(BME280_I2C, BME280_ADDRESS, 0xE1, 1, (uint8_t *)trimdata+25, 7, HAL_MAX_DELAY);
  55              		.loc 1 56 2 view .LVU3
  56 0020 0295     		str	r5, [sp, #8]
  57 0022 0723     		movs	r3, #7
  58 0024 0193     		str	r3, [sp, #4]
  59 0026 0DF12903 		add	r3, sp, #41
ARM GAS  C:\Users\Dell\AppData\Local\Temp\cchSoRAE.s 			page 3


  60 002a 0093     		str	r3, [sp]
  61 002c 0123     		movs	r3, #1
  62 002e E122     		movs	r2, #225
  63 0030 EC21     		movs	r1, #236
  64 0032 2046     		mov	r0, r4
  65 0034 FFF7FEFF 		bl	HAL_I2C_Mem_Read
  66              	.LVL1:
  57:Core/Src/BME280_STM32.c **** 
  58:Core/Src/BME280_STM32.c **** 	// Arrange the data as per the datasheet (page no. 24)
  59:Core/Src/BME280_STM32.c **** 	dig_T1 = (trimdata[1]<<8) | trimdata[0];
  67              		.loc 1 59 2 view .LVU4
  68              		.loc 1 59 20 is_stmt 0 view .LVU5
  69 0038 9DF81120 		ldrb	r2, [sp, #17]	@ zero_extendqisi2
  70              		.loc 1 59 38 view .LVU6
  71 003c 9DF81030 		ldrb	r3, [sp, #16]	@ zero_extendqisi2
  72              		.loc 1 59 28 view .LVU7
  73 0040 43EA0223 		orr	r3, r3, r2, lsl #8
  74              		.loc 1 59 9 view .LVU8
  75 0044 404A     		ldr	r2, .L3+4
  76 0046 1380     		strh	r3, [r2]	@ movhi
  60:Core/Src/BME280_STM32.c **** 	dig_T2 = (trimdata[3]<<8) | trimdata[2];
  77              		.loc 1 60 2 is_stmt 1 view .LVU9
  78              		.loc 1 60 20 is_stmt 0 view .LVU10
  79 0048 9DF81320 		ldrb	r2, [sp, #19]	@ zero_extendqisi2
  80              		.loc 1 60 38 view .LVU11
  81 004c 9DF81230 		ldrb	r3, [sp, #18]	@ zero_extendqisi2
  82              		.loc 1 60 28 view .LVU12
  83 0050 43EA0223 		orr	r3, r3, r2, lsl #8
  84              		.loc 1 60 9 view .LVU13
  85 0054 3D4A     		ldr	r2, .L3+8
  86 0056 1380     		strh	r3, [r2]	@ movhi
  61:Core/Src/BME280_STM32.c **** 	dig_T3 = (trimdata[5]<<8) | trimdata[4];
  87              		.loc 1 61 2 is_stmt 1 view .LVU14
  88              		.loc 1 61 28 is_stmt 0 view .LVU15
  89 0058 9DF81530 		ldrb	r3, [sp, #21]	@ zero_extendqisi2
  90              		.loc 1 61 38 view .LVU16
  91 005c 9DF81420 		ldrb	r2, [sp, #20]	@ zero_extendqisi2
  92              		.loc 1 61 28 view .LVU17
  93 0060 42EA0322 		orr	r2, r2, r3, lsl #8
  94              		.loc 1 61 9 view .LVU18
  95 0064 3A49     		ldr	r1, .L3+12
  96 0066 0A80     		strh	r2, [r1]	@ movhi
  62:Core/Src/BME280_STM32.c **** 	dig_P1 = (trimdata[7]<<8) | trimdata[5];
  97              		.loc 1 62 2 is_stmt 1 view .LVU19
  98              		.loc 1 62 20 is_stmt 0 view .LVU20
  99 0068 9DF81720 		ldrb	r2, [sp, #23]	@ zero_extendqisi2
 100              		.loc 1 62 28 view .LVU21
 101 006c 43EA0223 		orr	r3, r3, r2, lsl #8
 102              		.loc 1 62 9 view .LVU22
 103 0070 384A     		ldr	r2, .L3+16
 104 0072 1380     		strh	r3, [r2]	@ movhi
  63:Core/Src/BME280_STM32.c **** 	dig_P2 = (trimdata[9]<<8) | trimdata[6];
 105              		.loc 1 63 2 is_stmt 1 view .LVU23
 106              		.loc 1 63 20 is_stmt 0 view .LVU24
 107 0074 9DF81920 		ldrb	r2, [sp, #25]	@ zero_extendqisi2
 108              		.loc 1 63 38 view .LVU25
 109 0078 9DF81630 		ldrb	r3, [sp, #22]	@ zero_extendqisi2
ARM GAS  C:\Users\Dell\AppData\Local\Temp\cchSoRAE.s 			page 4


 110              		.loc 1 63 28 view .LVU26
 111 007c 43EA0223 		orr	r3, r3, r2, lsl #8
 112              		.loc 1 63 9 view .LVU27
 113 0080 354A     		ldr	r2, .L3+20
 114 0082 1380     		strh	r3, [r2]	@ movhi
  64:Core/Src/BME280_STM32.c **** 	dig_P3 = (trimdata[11]<<8) | trimdata[10];
 115              		.loc 1 64 2 is_stmt 1 view .LVU28
 116              		.loc 1 64 20 is_stmt 0 view .LVU29
 117 0084 9DF81B20 		ldrb	r2, [sp, #27]	@ zero_extendqisi2
 118              		.loc 1 64 39 view .LVU30
 119 0088 9DF81A30 		ldrb	r3, [sp, #26]	@ zero_extendqisi2
 120              		.loc 1 64 29 view .LVU31
 121 008c 43EA0223 		orr	r3, r3, r2, lsl #8
 122              		.loc 1 64 9 view .LVU32
 123 0090 324A     		ldr	r2, .L3+24
 124 0092 1380     		strh	r3, [r2]	@ movhi
  65:Core/Src/BME280_STM32.c **** 	dig_P4 = (trimdata[13]<<8) | trimdata[12];
 125              		.loc 1 65 2 is_stmt 1 view .LVU33
 126              		.loc 1 65 20 is_stmt 0 view .LVU34
 127 0094 9DF81D20 		ldrb	r2, [sp, #29]	@ zero_extendqisi2
 128              		.loc 1 65 39 view .LVU35
 129 0098 9DF81C30 		ldrb	r3, [sp, #28]	@ zero_extendqisi2
 130              		.loc 1 65 29 view .LVU36
 131 009c 43EA0223 		orr	r3, r3, r2, lsl #8
 132              		.loc 1 65 9 view .LVU37
 133 00a0 2F4A     		ldr	r2, .L3+28
 134 00a2 1380     		strh	r3, [r2]	@ movhi
  66:Core/Src/BME280_STM32.c **** 	dig_P5 = (trimdata[15]<<8) | trimdata[14];
 135              		.loc 1 66 2 is_stmt 1 view .LVU38
 136              		.loc 1 66 20 is_stmt 0 view .LVU39
 137 00a4 9DF81F20 		ldrb	r2, [sp, #31]	@ zero_extendqisi2
 138              		.loc 1 66 39 view .LVU40
 139 00a8 9DF81E30 		ldrb	r3, [sp, #30]	@ zero_extendqisi2
 140              		.loc 1 66 29 view .LVU41
 141 00ac 43EA0223 		orr	r3, r3, r2, lsl #8
 142              		.loc 1 66 9 view .LVU42
 143 00b0 2C4A     		ldr	r2, .L3+32
 144 00b2 1380     		strh	r3, [r2]	@ movhi
  67:Core/Src/BME280_STM32.c **** 	dig_P6 = (trimdata[17]<<8) | trimdata[16];
 145              		.loc 1 67 2 is_stmt 1 view .LVU43
 146              		.loc 1 67 20 is_stmt 0 view .LVU44
 147 00b4 9DF82120 		ldrb	r2, [sp, #33]	@ zero_extendqisi2
 148              		.loc 1 67 39 view .LVU45
 149 00b8 9DF82030 		ldrb	r3, [sp, #32]	@ zero_extendqisi2
 150              		.loc 1 67 29 view .LVU46
 151 00bc 43EA0223 		orr	r3, r3, r2, lsl #8
 152              		.loc 1 67 9 view .LVU47
 153 00c0 294A     		ldr	r2, .L3+36
 154 00c2 1380     		strh	r3, [r2]	@ movhi
  68:Core/Src/BME280_STM32.c **** 	dig_P7 = (trimdata[19]<<8) | trimdata[18];
 155              		.loc 1 68 2 is_stmt 1 view .LVU48
 156              		.loc 1 68 20 is_stmt 0 view .LVU49
 157 00c4 9DF82320 		ldrb	r2, [sp, #35]	@ zero_extendqisi2
 158              		.loc 1 68 39 view .LVU50
 159 00c8 9DF82230 		ldrb	r3, [sp, #34]	@ zero_extendqisi2
 160              		.loc 1 68 29 view .LVU51
 161 00cc 43EA0223 		orr	r3, r3, r2, lsl #8
ARM GAS  C:\Users\Dell\AppData\Local\Temp\cchSoRAE.s 			page 5


 162              		.loc 1 68 9 view .LVU52
 163 00d0 264A     		ldr	r2, .L3+40
 164 00d2 1380     		strh	r3, [r2]	@ movhi
  69:Core/Src/BME280_STM32.c **** 	dig_P8 = (trimdata[21]<<8) | trimdata[20];
 165              		.loc 1 69 2 is_stmt 1 view .LVU53
 166              		.loc 1 69 20 is_stmt 0 view .LVU54
 167 00d4 9DF82520 		ldrb	r2, [sp, #37]	@ zero_extendqisi2
 168              		.loc 1 69 39 view .LVU55
 169 00d8 9DF82430 		ldrb	r3, [sp, #36]	@ zero_extendqisi2
 170              		.loc 1 69 29 view .LVU56
 171 00dc 43EA0223 		orr	r3, r3, r2, lsl #8
 172              		.loc 1 69 9 view .LVU57
 173 00e0 234A     		ldr	r2, .L3+44
 174 00e2 1380     		strh	r3, [r2]	@ movhi
  70:Core/Src/BME280_STM32.c **** 	dig_P9 = (trimdata[23]<<8) | trimdata[22];
 175              		.loc 1 70 2 is_stmt 1 view .LVU58
 176              		.loc 1 70 20 is_stmt 0 view .LVU59
 177 00e4 9DF82720 		ldrb	r2, [sp, #39]	@ zero_extendqisi2
 178              		.loc 1 70 39 view .LVU60
 179 00e8 9DF82630 		ldrb	r3, [sp, #38]	@ zero_extendqisi2
 180              		.loc 1 70 29 view .LVU61
 181 00ec 43EA0223 		orr	r3, r3, r2, lsl #8
 182              		.loc 1 70 9 view .LVU62
 183 00f0 204A     		ldr	r2, .L3+48
 184 00f2 1380     		strh	r3, [r2]	@ movhi
  71:Core/Src/BME280_STM32.c **** 	dig_H1 = trimdata[24];
 185              		.loc 1 71 2 is_stmt 1 view .LVU63
 186              		.loc 1 71 19 is_stmt 0 view .LVU64
 187 00f4 9DF82820 		ldrb	r2, [sp, #40]	@ zero_extendqisi2
 188              		.loc 1 71 9 view .LVU65
 189 00f8 1F4B     		ldr	r3, .L3+52
 190 00fa 1A80     		strh	r2, [r3]	@ movhi
  72:Core/Src/BME280_STM32.c **** 	dig_H2 = (trimdata[26]<<8) | trimdata[25];
 191              		.loc 1 72 2 is_stmt 1 view .LVU66
 192              		.loc 1 72 20 is_stmt 0 view .LVU67
 193 00fc 9DF82A20 		ldrb	r2, [sp, #42]	@ zero_extendqisi2
 194              		.loc 1 72 39 view .LVU68
 195 0100 9DF82930 		ldrb	r3, [sp, #41]	@ zero_extendqisi2
 196              		.loc 1 72 29 view .LVU69
 197 0104 43EA0223 		orr	r3, r3, r2, lsl #8
 198              		.loc 1 72 9 view .LVU70
 199 0108 1C4A     		ldr	r2, .L3+56
 200 010a 1380     		strh	r3, [r2]	@ movhi
  73:Core/Src/BME280_STM32.c **** 	dig_H3 = (trimdata[27]);
 201              		.loc 1 73 2 is_stmt 1 view .LVU71
 202              		.loc 1 73 20 is_stmt 0 view .LVU72
 203 010c 9DF82B20 		ldrb	r2, [sp, #43]	@ zero_extendqisi2
 204              		.loc 1 73 9 view .LVU73
 205 0110 1B4B     		ldr	r3, .L3+60
 206 0112 1A80     		strh	r2, [r3]	@ movhi
  74:Core/Src/BME280_STM32.c **** 	dig_H4 = (trimdata[28]<<4) | (trimdata[29] & 0x0f);
 207              		.loc 1 74 2 is_stmt 1 view .LVU74
 208              		.loc 1 74 20 is_stmt 0 view .LVU75
 209 0114 9DF82C10 		ldrb	r1, [sp, #44]	@ zero_extendqisi2
 210              		.loc 1 74 40 view .LVU76
 211 0118 9DF82D30 		ldrb	r3, [sp, #45]	@ zero_extendqisi2
 212              		.loc 1 74 45 view .LVU77
ARM GAS  C:\Users\Dell\AppData\Local\Temp\cchSoRAE.s 			page 6


 213 011c 03F00F02 		and	r2, r3, #15
 214              		.loc 1 74 29 view .LVU78
 215 0120 42EA0112 		orr	r2, r2, r1, lsl #4
 216              		.loc 1 74 9 view .LVU79
 217 0124 1749     		ldr	r1, .L3+64
 218 0126 0A80     		strh	r2, [r1]	@ movhi
  75:Core/Src/BME280_STM32.c **** 	dig_H5 = (trimdata[30]<<4) | (trimdata[29]>>4);
 219              		.loc 1 75 2 is_stmt 1 view .LVU80
 220              		.loc 1 75 20 is_stmt 0 view .LVU81
 221 0128 9DF82E20 		ldrb	r2, [sp, #46]	@ zero_extendqisi2
 222              		.loc 1 75 29 view .LVU82
 223 012c 1B09     		lsrs	r3, r3, #4
 224 012e 43EA0213 		orr	r3, r3, r2, lsl #4
 225              		.loc 1 75 9 view .LVU83
 226 0132 154A     		ldr	r2, .L3+68
 227 0134 1380     		strh	r3, [r2]	@ movhi
  76:Core/Src/BME280_STM32.c **** 	dig_H6 = (trimdata[31]);
 228              		.loc 1 76 2 is_stmt 1 view .LVU84
 229              		.loc 1 76 20 is_stmt 0 view .LVU85
 230 0136 9DF82F20 		ldrb	r2, [sp, #47]	@ zero_extendqisi2
 231              		.loc 1 76 9 view .LVU86
 232 013a 144B     		ldr	r3, .L3+72
 233 013c 1A80     		strh	r2, [r3]	@ movhi
  77:Core/Src/BME280_STM32.c **** }
 234              		.loc 1 77 1 view .LVU87
 235 013e 0DB0     		add	sp, sp, #52
 236              	.LCFI2:
 237              		.cfi_def_cfa_offset 12
 238              		@ sp needed
 239 0140 30BD     		pop	{r4, r5, pc}
 240              	.L4:
 241 0142 00BF     		.align	2
 242              	.L3:
 243 0144 00000000 		.word	hi2c1
 244 0148 00000000 		.word	dig_T1
 245 014c 00000000 		.word	dig_T2
 246 0150 00000000 		.word	dig_T3
 247 0154 00000000 		.word	dig_P1
 248 0158 00000000 		.word	dig_P2
 249 015c 00000000 		.word	dig_P3
 250 0160 00000000 		.word	dig_P4
 251 0164 00000000 		.word	dig_P5
 252 0168 00000000 		.word	dig_P6
 253 016c 00000000 		.word	dig_P7
 254 0170 00000000 		.word	dig_P8
 255 0174 00000000 		.word	dig_P9
 256 0178 00000000 		.word	dig_H1
 257 017c 00000000 		.word	dig_H2
 258 0180 00000000 		.word	dig_H3
 259 0184 00000000 		.word	dig_H4
 260 0188 00000000 		.word	dig_H5
 261 018c 00000000 		.word	dig_H6
 262              		.cfi_endproc
 263              	.LFE65:
 265              		.section	.text.BME280_Config,"ax",%progbits
 266              		.align	1
 267              		.global	BME280_Config
ARM GAS  C:\Users\Dell\AppData\Local\Temp\cchSoRAE.s 			page 7


 268              		.syntax unified
 269              		.thumb
 270              		.thumb_func
 272              	BME280_Config:
 273              	.LVL2:
 274              	.LFB66:
  78:Core/Src/BME280_STM32.c **** 
  79:Core/Src/BME280_STM32.c **** /* Configuration for the BME280
  80:Core/Src/BME280_STM32.c **** 
  81:Core/Src/BME280_STM32.c ****  * @osrs is the oversampling to improve the accuracy
  82:Core/Src/BME280_STM32.c ****  *       if osrs is set to OSRS_OFF, the respective measurement will be skipped
  83:Core/Src/BME280_STM32.c ****  *       It can be set to OSRS_1, OSRS_2, OSRS_4, etc. Check the header file
  84:Core/Src/BME280_STM32.c ****  *
  85:Core/Src/BME280_STM32.c ****  * @mode can be used to set the mode for the device
  86:Core/Src/BME280_STM32.c ****  *       MODE_SLEEP will put the device in sleep
  87:Core/Src/BME280_STM32.c ****  *       MODE_FORCED device goes back to sleep after one measurement. You need to use the BME280_Wa
  88:Core/Src/BME280_STM32.c ****  *       MODE_NORMAL device performs measurement in the normal mode. Check datasheet page no 16
  89:Core/Src/BME280_STM32.c ****  *
  90:Core/Src/BME280_STM32.c ****  * @t_sb is the standby time. The time sensor waits before performing another measurement
  91:Core/Src/BME280_STM32.c ****  *       It is used along with the normal mode. Check datasheet page no 16 and page no 30
  92:Core/Src/BME280_STM32.c ****  *
  93:Core/Src/BME280_STM32.c ****  * @filter is the IIR filter coefficients
  94:Core/Src/BME280_STM32.c ****  *         IIR is used to avoid the short term fluctuations
  95:Core/Src/BME280_STM32.c ****  *         Check datasheet page no 18 and page no 30
  96:Core/Src/BME280_STM32.c ****  */
  97:Core/Src/BME280_STM32.c **** 
  98:Core/Src/BME280_STM32.c **** int BME280_Config (uint8_t osrs_t, uint8_t osrs_p, uint8_t osrs_h, uint8_t mode, uint8_t t_sb, uint
  99:Core/Src/BME280_STM32.c **** {
 275              		.loc 1 99 1 is_stmt 1 view -0
 276              		.cfi_startproc
 277              		@ args = 8, pretend = 0, frame = 8
 278              		@ frame_needed = 0, uses_anonymous_args = 0
 279              		.loc 1 99 1 is_stmt 0 view .LVU89
 280 0000 F0B5     		push	{r4, r5, r6, r7, lr}
 281              	.LCFI3:
 282              		.cfi_def_cfa_offset 20
 283              		.cfi_offset 4, -20
 284              		.cfi_offset 5, -16
 285              		.cfi_offset 6, -12
 286              		.cfi_offset 7, -8
 287              		.cfi_offset 14, -4
 288 0002 87B0     		sub	sp, sp, #28
 289              	.LCFI4:
 290              		.cfi_def_cfa_offset 48
 291 0004 0746     		mov	r7, r0
 292 0006 0C46     		mov	r4, r1
 293 0008 1646     		mov	r6, r2
 294 000a 1D46     		mov	r5, r3
 100:Core/Src/BME280_STM32.c **** 	// Read the Trimming parameters
 101:Core/Src/BME280_STM32.c **** 	TrimRead();
 295              		.loc 1 101 2 is_stmt 1 view .LVU90
 296 000c FFF7FEFF 		bl	TrimRead
 297              	.LVL3:
 102:Core/Src/BME280_STM32.c **** 
 103:Core/Src/BME280_STM32.c **** 
 104:Core/Src/BME280_STM32.c **** 	uint8_t datatowrite = 0;
 298              		.loc 1 104 2 view .LVU91
ARM GAS  C:\Users\Dell\AppData\Local\Temp\cchSoRAE.s 			page 8


 299              		.loc 1 104 10 is_stmt 0 view .LVU92
 300 0010 0023     		movs	r3, #0
 301 0012 8DF81730 		strb	r3, [sp, #23]
 105:Core/Src/BME280_STM32.c **** 	uint8_t datacheck = 0;
 302              		.loc 1 105 2 is_stmt 1 view .LVU93
 303              		.loc 1 105 10 is_stmt 0 view .LVU94
 304 0016 8DF81630 		strb	r3, [sp, #22]
 106:Core/Src/BME280_STM32.c **** 
 107:Core/Src/BME280_STM32.c **** 	// Reset the device
 108:Core/Src/BME280_STM32.c **** 	datatowrite = 0xB6;  // reset sequence
 305              		.loc 1 108 2 is_stmt 1 view .LVU95
 306              		.loc 1 108 14 is_stmt 0 view .LVU96
 307 001a B623     		movs	r3, #182
 308 001c 8DF81730 		strb	r3, [sp, #23]
 109:Core/Src/BME280_STM32.c **** 	if (HAL_I2C_Mem_Write(BME280_I2C, BME280_ADDRESS, RESET_REG, 1, &datatowrite, 1, 1000) != HAL_OK)
 309              		.loc 1 109 2 is_stmt 1 view .LVU97
 310              		.loc 1 109 6 is_stmt 0 view .LVU98
 311 0020 4FF47A73 		mov	r3, #1000
 312 0024 0293     		str	r3, [sp, #8]
 313 0026 0123     		movs	r3, #1
 314 0028 0193     		str	r3, [sp, #4]
 315 002a 0DF11702 		add	r2, sp, #23
 316 002e 0092     		str	r2, [sp]
 317 0030 E022     		movs	r2, #224
 318 0032 EC21     		movs	r1, #236
 319 0034 5048     		ldr	r0, .L15
 320 0036 FFF7FEFF 		bl	HAL_I2C_Mem_Write
 321              	.LVL4:
 322              		.loc 1 109 5 discriminator 1 view .LVU99
 323 003a 0028     		cmp	r0, #0
 324 003c 40F08680 		bne	.L7
 110:Core/Src/BME280_STM32.c **** 	{
 111:Core/Src/BME280_STM32.c **** 		return -1;
 112:Core/Src/BME280_STM32.c **** 	}
 113:Core/Src/BME280_STM32.c **** 
 114:Core/Src/BME280_STM32.c **** 	HAL_Delay (100);
 325              		.loc 1 114 2 is_stmt 1 view .LVU100
 326 0040 6420     		movs	r0, #100
 327 0042 FFF7FEFF 		bl	HAL_Delay
 328              	.LVL5:
 115:Core/Src/BME280_STM32.c **** 
 116:Core/Src/BME280_STM32.c **** 
 117:Core/Src/BME280_STM32.c **** 	// write the humidity oversampling to 0xF2
 118:Core/Src/BME280_STM32.c **** 	datatowrite = osrs_h;
 329              		.loc 1 118 2 view .LVU101
 330              		.loc 1 118 14 is_stmt 0 view .LVU102
 331 0046 8DF81760 		strb	r6, [sp, #23]
 119:Core/Src/BME280_STM32.c **** 	if (HAL_I2C_Mem_Write(BME280_I2C, BME280_ADDRESS, CTRL_HUM_REG, 1, &datatowrite, 1, 1000) != HAL_O
 332              		.loc 1 119 2 is_stmt 1 view .LVU103
 333              		.loc 1 119 6 is_stmt 0 view .LVU104
 334 004a 4FF47A73 		mov	r3, #1000
 335 004e 0293     		str	r3, [sp, #8]
 336 0050 0123     		movs	r3, #1
 337 0052 0193     		str	r3, [sp, #4]
 338 0054 0DF11702 		add	r2, sp, #23
 339 0058 0092     		str	r2, [sp]
 340 005a F222     		movs	r2, #242
ARM GAS  C:\Users\Dell\AppData\Local\Temp\cchSoRAE.s 			page 9


 341 005c EC21     		movs	r1, #236
 342 005e 4648     		ldr	r0, .L15
 343 0060 FFF7FEFF 		bl	HAL_I2C_Mem_Write
 344              	.LVL6:
 345              		.loc 1 119 5 discriminator 1 view .LVU105
 346 0064 0028     		cmp	r0, #0
 347 0066 74D1     		bne	.L8
 120:Core/Src/BME280_STM32.c **** 	{
 121:Core/Src/BME280_STM32.c **** 		return -1;
 122:Core/Src/BME280_STM32.c **** 	}
 123:Core/Src/BME280_STM32.c **** 	HAL_Delay (100);
 348              		.loc 1 123 2 is_stmt 1 view .LVU106
 349 0068 6420     		movs	r0, #100
 350 006a FFF7FEFF 		bl	HAL_Delay
 351              	.LVL7:
 124:Core/Src/BME280_STM32.c **** 	HAL_I2C_Mem_Read(BME280_I2C, BME280_ADDRESS, CTRL_HUM_REG, 1, &datacheck, 1, 1000);
 352              		.loc 1 124 2 view .LVU107
 353 006e 4FF47A73 		mov	r3, #1000
 354 0072 0293     		str	r3, [sp, #8]
 355 0074 0123     		movs	r3, #1
 356 0076 0193     		str	r3, [sp, #4]
 357 0078 0DF11602 		add	r2, sp, #22
 358 007c 0092     		str	r2, [sp]
 359 007e F222     		movs	r2, #242
 360 0080 EC21     		movs	r1, #236
 361 0082 3D48     		ldr	r0, .L15
 362 0084 FFF7FEFF 		bl	HAL_I2C_Mem_Read
 363              	.LVL8:
 125:Core/Src/BME280_STM32.c **** 	if (datacheck != datatowrite)
 364              		.loc 1 125 2 view .LVU108
 365              		.loc 1 125 16 is_stmt 0 view .LVU109
 366 0088 9DF81620 		ldrb	r2, [sp, #22]	@ zero_extendqisi2
 367 008c 9DF81730 		ldrb	r3, [sp, #23]	@ zero_extendqisi2
 368              		.loc 1 125 5 view .LVU110
 369 0090 9A42     		cmp	r2, r3
 370 0092 61D1     		bne	.L9
 126:Core/Src/BME280_STM32.c **** 	{
 127:Core/Src/BME280_STM32.c **** 		return -1;
 128:Core/Src/BME280_STM32.c **** 	}
 129:Core/Src/BME280_STM32.c **** 
 130:Core/Src/BME280_STM32.c **** 
 131:Core/Src/BME280_STM32.c **** 	// write the standby time and IIR filter coeff to 0xF5
 132:Core/Src/BME280_STM32.c **** 	datatowrite = (t_sb <<5) |(filter << 2);
 371              		.loc 1 132 2 is_stmt 1 view .LVU111
 372              		.loc 1 132 27 is_stmt 0 view .LVU112
 373 0094 9DF83430 		ldrb	r3, [sp, #52]	@ zero_extendqisi2
 374 0098 9B00     		lsls	r3, r3, #2
 375 009a 9DF83020 		ldrb	r2, [sp, #48]	@ zero_extendqisi2
 376 009e 43EA4213 		orr	r3, r3, r2, lsl #5
 377              		.loc 1 132 14 view .LVU113
 378 00a2 8DF81730 		strb	r3, [sp, #23]
 133:Core/Src/BME280_STM32.c **** 	if (HAL_I2C_Mem_Write(BME280_I2C, BME280_ADDRESS, CONFIG_REG, 1, &datatowrite, 1, 1000) != HAL_OK)
 379              		.loc 1 133 2 is_stmt 1 view .LVU114
 380              		.loc 1 133 6 is_stmt 0 view .LVU115
 381 00a6 4FF47A73 		mov	r3, #1000
 382 00aa 0293     		str	r3, [sp, #8]
 383 00ac 0123     		movs	r3, #1
ARM GAS  C:\Users\Dell\AppData\Local\Temp\cchSoRAE.s 			page 10


 384 00ae 0193     		str	r3, [sp, #4]
 385 00b0 0DF11702 		add	r2, sp, #23
 386 00b4 0092     		str	r2, [sp]
 387 00b6 F522     		movs	r2, #245
 388 00b8 EC21     		movs	r1, #236
 389 00ba 2F48     		ldr	r0, .L15
 390 00bc FFF7FEFF 		bl	HAL_I2C_Mem_Write
 391              	.LVL9:
 392              		.loc 1 133 5 discriminator 1 view .LVU116
 393 00c0 0028     		cmp	r0, #0
 394 00c2 4CD1     		bne	.L10
 134:Core/Src/BME280_STM32.c **** 	{
 135:Core/Src/BME280_STM32.c **** 		return -1;
 136:Core/Src/BME280_STM32.c **** 	}
 137:Core/Src/BME280_STM32.c **** 	HAL_Delay (100);
 395              		.loc 1 137 2 is_stmt 1 view .LVU117
 396 00c4 6420     		movs	r0, #100
 397 00c6 FFF7FEFF 		bl	HAL_Delay
 398              	.LVL10:
 138:Core/Src/BME280_STM32.c **** 	HAL_I2C_Mem_Read(BME280_I2C, BME280_ADDRESS, CONFIG_REG, 1, &datacheck, 1, 1000);
 399              		.loc 1 138 2 view .LVU118
 400 00ca 4FF47A73 		mov	r3, #1000
 401 00ce 0293     		str	r3, [sp, #8]
 402 00d0 0123     		movs	r3, #1
 403 00d2 0193     		str	r3, [sp, #4]
 404 00d4 0DF11602 		add	r2, sp, #22
 405 00d8 0092     		str	r2, [sp]
 406 00da F522     		movs	r2, #245
 407 00dc EC21     		movs	r1, #236
 408 00de 2648     		ldr	r0, .L15
 409 00e0 FFF7FEFF 		bl	HAL_I2C_Mem_Read
 410              	.LVL11:
 139:Core/Src/BME280_STM32.c **** 	if (datacheck != datatowrite)
 411              		.loc 1 139 2 view .LVU119
 412              		.loc 1 139 16 is_stmt 0 view .LVU120
 413 00e4 9DF81620 		ldrb	r2, [sp, #22]	@ zero_extendqisi2
 414 00e8 9DF81730 		ldrb	r3, [sp, #23]	@ zero_extendqisi2
 415              		.loc 1 139 5 view .LVU121
 416 00ec 9A42     		cmp	r2, r3
 417 00ee 39D1     		bne	.L11
 140:Core/Src/BME280_STM32.c **** 	{
 141:Core/Src/BME280_STM32.c **** 		return -1;
 142:Core/Src/BME280_STM32.c **** 	}
 143:Core/Src/BME280_STM32.c **** 
 144:Core/Src/BME280_STM32.c **** 
 145:Core/Src/BME280_STM32.c **** 	// write the pressure and temp oversampling along with mode to 0xF4
 146:Core/Src/BME280_STM32.c **** 	datatowrite = (osrs_t <<5) |(osrs_p << 2) | mode;
 418              		.loc 1 146 2 is_stmt 1 view .LVU122
 419              		.loc 1 146 29 is_stmt 0 view .LVU123
 420 00f0 A400     		lsls	r4, r4, #2
 421              	.LVL12:
 422              		.loc 1 146 29 view .LVU124
 423 00f2 44EA4714 		orr	r4, r4, r7, lsl #5
 424 00f6 64B2     		sxtb	r4, r4
 425              		.loc 1 146 44 view .LVU125
 426 00f8 2543     		orrs	r5, r5, r4
 427              	.LVL13:
ARM GAS  C:\Users\Dell\AppData\Local\Temp\cchSoRAE.s 			page 11


 428              		.loc 1 146 14 view .LVU126
 429 00fa 8DF81750 		strb	r5, [sp, #23]
 147:Core/Src/BME280_STM32.c **** 	if (HAL_I2C_Mem_Write(BME280_I2C, BME280_ADDRESS, CTRL_MEAS_REG, 1, &datatowrite, 1, 1000) != HAL_
 430              		.loc 1 147 2 is_stmt 1 view .LVU127
 431              		.loc 1 147 6 is_stmt 0 view .LVU128
 432 00fe 4FF47A73 		mov	r3, #1000
 433 0102 0293     		str	r3, [sp, #8]
 434 0104 0123     		movs	r3, #1
 435 0106 0193     		str	r3, [sp, #4]
 436 0108 0DF11702 		add	r2, sp, #23
 437 010c 0092     		str	r2, [sp]
 438 010e F422     		movs	r2, #244
 439 0110 EC21     		movs	r1, #236
 440 0112 1948     		ldr	r0, .L15
 441 0114 FFF7FEFF 		bl	HAL_I2C_Mem_Write
 442              	.LVL14:
 443              		.loc 1 147 5 discriminator 1 view .LVU129
 444 0118 38BB     		cbnz	r0, .L12
 148:Core/Src/BME280_STM32.c **** 	{
 149:Core/Src/BME280_STM32.c **** 		return -1;
 150:Core/Src/BME280_STM32.c **** 	}
 151:Core/Src/BME280_STM32.c **** 	HAL_Delay (100);
 445              		.loc 1 151 2 is_stmt 1 view .LVU130
 446 011a 6420     		movs	r0, #100
 447 011c FFF7FEFF 		bl	HAL_Delay
 448              	.LVL15:
 152:Core/Src/BME280_STM32.c **** 	HAL_I2C_Mem_Read(BME280_I2C, BME280_ADDRESS, CTRL_MEAS_REG, 1, &datacheck, 1, 1000);
 449              		.loc 1 152 2 view .LVU131
 450 0120 4FF47A73 		mov	r3, #1000
 451 0124 0293     		str	r3, [sp, #8]
 452 0126 0123     		movs	r3, #1
 453 0128 0193     		str	r3, [sp, #4]
 454 012a 0DF11602 		add	r2, sp, #22
 455 012e 0092     		str	r2, [sp]
 456 0130 F422     		movs	r2, #244
 457 0132 EC21     		movs	r1, #236
 458 0134 1048     		ldr	r0, .L15
 459 0136 FFF7FEFF 		bl	HAL_I2C_Mem_Read
 460              	.LVL16:
 153:Core/Src/BME280_STM32.c **** 	if (datacheck != datatowrite)
 461              		.loc 1 153 2 view .LVU132
 462              		.loc 1 153 16 is_stmt 0 view .LVU133
 463 013a 9DF81620 		ldrb	r2, [sp, #22]	@ zero_extendqisi2
 464 013e 9DF81730 		ldrb	r3, [sp, #23]	@ zero_extendqisi2
 465              		.loc 1 153 5 view .LVU134
 466 0142 9A42     		cmp	r2, r3
 467 0144 14D1     		bne	.L13
 154:Core/Src/BME280_STM32.c **** 	{
 155:Core/Src/BME280_STM32.c **** 		return -1;
 156:Core/Src/BME280_STM32.c **** 	}
 157:Core/Src/BME280_STM32.c **** 
 158:Core/Src/BME280_STM32.c **** 	return 0;
 468              		.loc 1 158 9 view .LVU135
 469 0146 0020     		movs	r0, #0
 470              	.L5:
 159:Core/Src/BME280_STM32.c **** }
 471              		.loc 1 159 1 view .LVU136
ARM GAS  C:\Users\Dell\AppData\Local\Temp\cchSoRAE.s 			page 12


 472 0148 07B0     		add	sp, sp, #28
 473              	.LCFI5:
 474              		.cfi_remember_state
 475              		.cfi_def_cfa_offset 20
 476              		@ sp needed
 477 014a F0BD     		pop	{r4, r5, r6, r7, pc}
 478              	.LVL17:
 479              	.L7:
 480              	.LCFI6:
 481              		.cfi_restore_state
 111:Core/Src/BME280_STM32.c **** 	}
 482              		.loc 1 111 10 view .LVU137
 483 014c 4FF0FF30 		mov	r0, #-1
 484 0150 FAE7     		b	.L5
 485              	.L8:
 121:Core/Src/BME280_STM32.c **** 	}
 486              		.loc 1 121 10 view .LVU138
 487 0152 4FF0FF30 		mov	r0, #-1
 488 0156 F7E7     		b	.L5
 489              	.L9:
 127:Core/Src/BME280_STM32.c **** 	}
 490              		.loc 1 127 10 view .LVU139
 491 0158 4FF0FF30 		mov	r0, #-1
 492 015c F4E7     		b	.L5
 493              	.L10:
 135:Core/Src/BME280_STM32.c **** 	}
 494              		.loc 1 135 10 view .LVU140
 495 015e 4FF0FF30 		mov	r0, #-1
 496 0162 F1E7     		b	.L5
 497              	.L11:
 141:Core/Src/BME280_STM32.c **** 	}
 498              		.loc 1 141 10 view .LVU141
 499 0164 4FF0FF30 		mov	r0, #-1
 500 0168 EEE7     		b	.L5
 501              	.L12:
 149:Core/Src/BME280_STM32.c **** 	}
 502              		.loc 1 149 10 view .LVU142
 503 016a 4FF0FF30 		mov	r0, #-1
 504 016e EBE7     		b	.L5
 505              	.L13:
 155:Core/Src/BME280_STM32.c **** 	}
 506              		.loc 1 155 10 view .LVU143
 507 0170 4FF0FF30 		mov	r0, #-1
 508 0174 E8E7     		b	.L5
 509              	.L16:
 510 0176 00BF     		.align	2
 511              	.L15:
 512 0178 00000000 		.word	hi2c1
 513              		.cfi_endproc
 514              	.LFE66:
 516              		.section	.text.BMEReadRaw,"ax",%progbits
 517              		.align	1
 518              		.global	BMEReadRaw
 519              		.syntax unified
 520              		.thumb
 521              		.thumb_func
 523              	BMEReadRaw:
ARM GAS  C:\Users\Dell\AppData\Local\Temp\cchSoRAE.s 			page 13


 524              	.LFB67:
 160:Core/Src/BME280_STM32.c **** 
 161:Core/Src/BME280_STM32.c **** int BMEReadRaw(void)
 162:Core/Src/BME280_STM32.c **** {
 525              		.loc 1 162 1 is_stmt 1 view -0
 526              		.cfi_startproc
 527              		@ args = 0, pretend = 0, frame = 8
 528              		@ frame_needed = 0, uses_anonymous_args = 0
 529 0000 10B5     		push	{r4, lr}
 530              	.LCFI7:
 531              		.cfi_def_cfa_offset 8
 532              		.cfi_offset 4, -8
 533              		.cfi_offset 14, -4
 534 0002 86B0     		sub	sp, sp, #24
 535              	.LCFI8:
 536              		.cfi_def_cfa_offset 32
 163:Core/Src/BME280_STM32.c **** 	uint8_t RawData[8];
 537              		.loc 1 163 2 view .LVU145
 164:Core/Src/BME280_STM32.c **** 
 165:Core/Src/BME280_STM32.c **** 	// Check the chip ID before reading
 166:Core/Src/BME280_STM32.c **** 	HAL_I2C_Mem_Read(&hi2c1, BME280_ADDRESS, ID_REG, 1, &chipID, 1, 1000);
 538              		.loc 1 166 2 view .LVU146
 539 0004 4FF47A73 		mov	r3, #1000
 540 0008 0293     		str	r3, [sp, #8]
 541 000a 0123     		movs	r3, #1
 542 000c 0193     		str	r3, [sp, #4]
 543 000e 1F4C     		ldr	r4, .L21
 544 0010 0094     		str	r4, [sp]
 545 0012 D022     		movs	r2, #208
 546 0014 EC21     		movs	r1, #236
 547 0016 1E48     		ldr	r0, .L21+4
 548 0018 FFF7FEFF 		bl	HAL_I2C_Mem_Read
 549              	.LVL18:
 167:Core/Src/BME280_STM32.c **** 
 168:Core/Src/BME280_STM32.c **** 	if (chipID == 0x58)
 550              		.loc 1 168 2 view .LVU147
 551              		.loc 1 168 13 is_stmt 0 view .LVU148
 552 001c 2378     		ldrb	r3, [r4]	@ zero_extendqisi2
 553              		.loc 1 168 5 view .LVU149
 554 001e 582B     		cmp	r3, #88
 555 0020 31D1     		bne	.L19
 169:Core/Src/BME280_STM32.c **** 	{
 170:Core/Src/BME280_STM32.c **** 		// Read the Registers 0xF7 to 0xFE
 171:Core/Src/BME280_STM32.c **** 		HAL_I2C_Mem_Read(BME280_I2C, BME280_ADDRESS, PRESS_MSB_REG, 1, RawData, 8, HAL_MAX_DELAY);
 556              		.loc 1 171 3 is_stmt 1 view .LVU150
 557 0022 4FF0FF33 		mov	r3, #-1
 558 0026 0293     		str	r3, [sp, #8]
 559 0028 0823     		movs	r3, #8
 560 002a 0193     		str	r3, [sp, #4]
 561 002c 04AB     		add	r3, sp, #16
 562 002e 0093     		str	r3, [sp]
 563 0030 0123     		movs	r3, #1
 564 0032 F722     		movs	r2, #247
 565 0034 EC21     		movs	r1, #236
 566 0036 1648     		ldr	r0, .L21+4
 567 0038 FFF7FEFF 		bl	HAL_I2C_Mem_Read
 568              	.LVL19:
ARM GAS  C:\Users\Dell\AppData\Local\Temp\cchSoRAE.s 			page 14


 172:Core/Src/BME280_STM32.c **** 
 173:Core/Src/BME280_STM32.c **** 		/* Calculate the Raw data for the parameters
 174:Core/Src/BME280_STM32.c **** 		 * Here the Pressure and Temperature are in 20 bit format and humidity in 16 bit format
 175:Core/Src/BME280_STM32.c **** 		 */
 176:Core/Src/BME280_STM32.c **** 		pRaw = (RawData[0] << 12) | (RawData[1] << 4) | (RawData[2] >> 4);
 569              		.loc 1 176 3 view .LVU151
 570              		.loc 1 176 18 is_stmt 0 view .LVU152
 571 003c 9DF81020 		ldrb	r2, [sp, #16]	@ zero_extendqisi2
 572              		.loc 1 176 39 view .LVU153
 573 0040 9DF81130 		ldrb	r3, [sp, #17]	@ zero_extendqisi2
 574              		.loc 1 176 43 view .LVU154
 575 0044 1B01     		lsls	r3, r3, #4
 576              		.loc 1 176 29 view .LVU155
 577 0046 43EA0233 		orr	r3, r3, r2, lsl #12
 578              		.loc 1 176 59 view .LVU156
 579 004a 9DF81220 		ldrb	r2, [sp, #18]	@ zero_extendqisi2
 580              		.loc 1 176 49 view .LVU157
 581 004e 43EA1213 		orr	r3, r3, r2, lsr #4
 582              		.loc 1 176 8 view .LVU158
 583 0052 104A     		ldr	r2, .L21+8
 584 0054 1360     		str	r3, [r2]
 177:Core/Src/BME280_STM32.c **** 		tRaw = (RawData[3] << 12) | (RawData[4] << 4) | (RawData[5] >> 4);
 585              		.loc 1 177 3 is_stmt 1 view .LVU159
 586              		.loc 1 177 18 is_stmt 0 view .LVU160
 587 0056 9DF81320 		ldrb	r2, [sp, #19]	@ zero_extendqisi2
 588              		.loc 1 177 39 view .LVU161
 589 005a 9DF81430 		ldrb	r3, [sp, #20]	@ zero_extendqisi2
 590              		.loc 1 177 43 view .LVU162
 591 005e 1B01     		lsls	r3, r3, #4
 592              		.loc 1 177 29 view .LVU163
 593 0060 43EA0233 		orr	r3, r3, r2, lsl #12
 594              		.loc 1 177 59 view .LVU164
 595 0064 9DF81520 		ldrb	r2, [sp, #21]	@ zero_extendqisi2
 596              		.loc 1 177 49 view .LVU165
 597 0068 43EA1213 		orr	r3, r3, r2, lsr #4
 598              		.loc 1 177 8 view .LVU166
 599 006c 0A4A     		ldr	r2, .L21+12
 600 006e 1360     		str	r3, [r2]
 178:Core/Src/BME280_STM32.c **** 		hRaw = (RawData[6] << 8) | (RawData[7]);
 601              		.loc 1 178 3 is_stmt 1 view .LVU167
 602              		.loc 1 178 18 is_stmt 0 view .LVU168
 603 0070 9DF81620 		ldrb	r2, [sp, #22]	@ zero_extendqisi2
 604              		.loc 1 178 38 view .LVU169
 605 0074 9DF81730 		ldrb	r3, [sp, #23]	@ zero_extendqisi2
 606              		.loc 1 178 28 view .LVU170
 607 0078 43EA0223 		orr	r3, r3, r2, lsl #8
 608              		.loc 1 178 8 view .LVU171
 609 007c 074A     		ldr	r2, .L21+16
 610 007e 1360     		str	r3, [r2]
 179:Core/Src/BME280_STM32.c **** 
 180:Core/Src/BME280_STM32.c **** 		return 0;
 611              		.loc 1 180 3 is_stmt 1 view .LVU172
 612              		.loc 1 180 10 is_stmt 0 view .LVU173
 613 0080 0020     		movs	r0, #0
 614              	.L17:
 181:Core/Src/BME280_STM32.c **** 	}
 182:Core/Src/BME280_STM32.c **** 
ARM GAS  C:\Users\Dell\AppData\Local\Temp\cchSoRAE.s 			page 15


 183:Core/Src/BME280_STM32.c **** 	else
 184:Core/Src/BME280_STM32.c **** 		return -1;
 185:Core/Src/BME280_STM32.c **** }
 615              		.loc 1 185 1 view .LVU174
 616 0082 06B0     		add	sp, sp, #24
 617              	.LCFI9:
 618              		.cfi_remember_state
 619              		.cfi_def_cfa_offset 8
 620              		@ sp needed
 621 0084 10BD     		pop	{r4, pc}
 622              	.L19:
 623              	.LCFI10:
 624              		.cfi_restore_state
 184:Core/Src/BME280_STM32.c **** }
 625              		.loc 1 184 10 view .LVU175
 626 0086 4FF0FF30 		mov	r0, #-1
 627 008a FAE7     		b	.L17
 628              	.L22:
 629              		.align	2
 630              	.L21:
 631 008c 00000000 		.word	chipID
 632 0090 00000000 		.word	hi2c1
 633 0094 00000000 		.word	pRaw
 634 0098 00000000 		.word	tRaw
 635 009c 00000000 		.word	hRaw
 636              		.cfi_endproc
 637              	.LFE67:
 639              		.section	.text.BME280_WakeUP,"ax",%progbits
 640              		.align	1
 641              		.global	BME280_WakeUP
 642              		.syntax unified
 643              		.thumb
 644              		.thumb_func
 646              	BME280_WakeUP:
 647              	.LFB68:
 186:Core/Src/BME280_STM32.c **** 
 187:Core/Src/BME280_STM32.c **** /* To be used when doing the force measurement
 188:Core/Src/BME280_STM32.c ****  * the Device need to be put in forced mode every time the measurement is needed
 189:Core/Src/BME280_STM32.c ****  */
 190:Core/Src/BME280_STM32.c **** void BME280_WakeUP(void)
 191:Core/Src/BME280_STM32.c **** {
 648              		.loc 1 191 1 is_stmt 1 view -0
 649              		.cfi_startproc
 650              		@ args = 0, pretend = 0, frame = 8
 651              		@ frame_needed = 0, uses_anonymous_args = 0
 652 0000 F0B5     		push	{r4, r5, r6, r7, lr}
 653              	.LCFI11:
 654              		.cfi_def_cfa_offset 20
 655              		.cfi_offset 4, -20
 656              		.cfi_offset 5, -16
 657              		.cfi_offset 6, -12
 658              		.cfi_offset 7, -8
 659              		.cfi_offset 14, -4
 660 0002 87B0     		sub	sp, sp, #28
 661              	.LCFI12:
 662              		.cfi_def_cfa_offset 48
 192:Core/Src/BME280_STM32.c **** 	uint8_t datatowrite = 0;
ARM GAS  C:\Users\Dell\AppData\Local\Temp\cchSoRAE.s 			page 16


 663              		.loc 1 192 2 view .LVU177
 664              		.loc 1 192 10 is_stmt 0 view .LVU178
 665 0004 0023     		movs	r3, #0
 666 0006 8DF81730 		strb	r3, [sp, #23]
 193:Core/Src/BME280_STM32.c **** 
 194:Core/Src/BME280_STM32.c **** 	// first read the register
 195:Core/Src/BME280_STM32.c **** 	HAL_I2C_Mem_Read(BME280_I2C, BME280_ADDRESS, CTRL_MEAS_REG, 1, &datatowrite, 1, 1000);
 667              		.loc 1 195 2 is_stmt 1 view .LVU179
 668 000a 114E     		ldr	r6, .L25
 669 000c 4FF47A77 		mov	r7, #1000
 670 0010 0297     		str	r7, [sp, #8]
 671 0012 0124     		movs	r4, #1
 672 0014 0194     		str	r4, [sp, #4]
 673 0016 0DF11705 		add	r5, sp, #23
 674 001a 0095     		str	r5, [sp]
 675 001c 2346     		mov	r3, r4
 676 001e F422     		movs	r2, #244
 677 0020 EC21     		movs	r1, #236
 678 0022 3046     		mov	r0, r6
 679 0024 FFF7FEFF 		bl	HAL_I2C_Mem_Read
 680              	.LVL20:
 196:Core/Src/BME280_STM32.c **** 
 197:Core/Src/BME280_STM32.c **** 	// modify the data with the forced mode
 198:Core/Src/BME280_STM32.c **** 	datatowrite = datatowrite | MODE_FORCED;
 681              		.loc 1 198 2 view .LVU180
 682              		.loc 1 198 14 is_stmt 0 view .LVU181
 683 0028 9DF81730 		ldrb	r3, [sp, #23]	@ zero_extendqisi2
 684 002c 2343     		orrs	r3, r3, r4
 685 002e 8DF81730 		strb	r3, [sp, #23]
 199:Core/Src/BME280_STM32.c **** 
 200:Core/Src/BME280_STM32.c **** 	// write the new data to the register
 201:Core/Src/BME280_STM32.c **** 	HAL_I2C_Mem_Write(BME280_I2C, BME280_ADDRESS, CTRL_MEAS_REG, 1, &datatowrite, 1, 1000);
 686              		.loc 1 201 2 is_stmt 1 view .LVU182
 687 0032 0297     		str	r7, [sp, #8]
 688 0034 0194     		str	r4, [sp, #4]
 689 0036 0095     		str	r5, [sp]
 690 0038 2346     		mov	r3, r4
 691 003a F422     		movs	r2, #244
 692 003c EC21     		movs	r1, #236
 693 003e 3046     		mov	r0, r6
 694 0040 FFF7FEFF 		bl	HAL_I2C_Mem_Write
 695              	.LVL21:
 202:Core/Src/BME280_STM32.c **** 
 203:Core/Src/BME280_STM32.c **** 	HAL_Delay (100);
 696              		.loc 1 203 2 view .LVU183
 697 0044 6420     		movs	r0, #100
 698 0046 FFF7FEFF 		bl	HAL_Delay
 699              	.LVL22:
 204:Core/Src/BME280_STM32.c **** }
 700              		.loc 1 204 1 is_stmt 0 view .LVU184
 701 004a 07B0     		add	sp, sp, #28
 702              	.LCFI13:
 703              		.cfi_def_cfa_offset 20
 704              		@ sp needed
 705 004c F0BD     		pop	{r4, r5, r6, r7, pc}
 706              	.L26:
 707 004e 00BF     		.align	2
ARM GAS  C:\Users\Dell\AppData\Local\Temp\cchSoRAE.s 			page 17


 708              	.L25:
 709 0050 00000000 		.word	hi2c1
 710              		.cfi_endproc
 711              	.LFE68:
 713              		.section	.text.BME280_compensate_T_int32,"ax",%progbits
 714              		.align	1
 715              		.global	BME280_compensate_T_int32
 716              		.syntax unified
 717              		.thumb
 718              		.thumb_func
 720              	BME280_compensate_T_int32:
 721              	.LVL23:
 722              	.LFB69:
 205:Core/Src/BME280_STM32.c **** 
 206:Core/Src/BME280_STM32.c **** /************* COMPENSATION CALCULATION AS PER DATASHEET (page 25) **************************/
 207:Core/Src/BME280_STM32.c **** 
 208:Core/Src/BME280_STM32.c **** /* Returns temperature in DegC, resolution is 0.01 DegC. Output value of “5123” equals 51.23 De
 209:Core/Src/BME280_STM32.c ****    t_fine carries fine temperature as global value
 210:Core/Src/BME280_STM32.c **** */
 211:Core/Src/BME280_STM32.c **** int32_t t_fine;
 212:Core/Src/BME280_STM32.c **** int32_t BME280_compensate_T_int32(int32_t adc_T)
 213:Core/Src/BME280_STM32.c **** {
 723              		.loc 1 213 1 is_stmt 1 view -0
 724              		.cfi_startproc
 725              		@ args = 0, pretend = 0, frame = 0
 726              		@ frame_needed = 0, uses_anonymous_args = 0
 727              		@ link register save eliminated.
 214:Core/Src/BME280_STM32.c **** 	int32_t var1, var2, T;
 728              		.loc 1 214 2 view .LVU186
 215:Core/Src/BME280_STM32.c **** 	var1 = ((((adc_T>>3) - ((int32_t)dig_T1<<1))) * ((int32_t)dig_T2)) >> 11;
 729              		.loc 1 215 2 view .LVU187
 730              		.loc 1 215 26 is_stmt 0 view .LVU188
 731 0000 0E4B     		ldr	r3, .L28
 732 0002 1B88     		ldrh	r3, [r3]
 733              		.loc 1 215 41 view .LVU189
 734 0004 5A00     		lsls	r2, r3, #1
 735              		.loc 1 215 23 view .LVU190
 736 0006 C2EBE002 		rsb	r2, r2, r0, asr #3
 737              		.loc 1 215 51 view .LVU191
 738 000a 0D49     		ldr	r1, .L28+4
 739 000c B1F90010 		ldrsh	r1, [r1]
 740              		.loc 1 215 48 view .LVU192
 741 0010 01FB02F2 		mul	r2, r1, r2
 742              	.LVL24:
 216:Core/Src/BME280_STM32.c **** 	var2 = (((((adc_T>>4) - ((int32_t)dig_T1)) * ((adc_T>>4) - ((int32_t)dig_T1)))>> 12) *((int32_t)di
 743              		.loc 1 216 2 is_stmt 1 view .LVU193
 744              		.loc 1 216 24 is_stmt 0 view .LVU194
 745 0014 C3EB2010 		rsb	r0, r3, r0, asr #4
 746              	.LVL25:
 747              		.loc 1 216 45 view .LVU195
 748 0018 00FB00F0 		mul	r0, r0, r0
 749              		.loc 1 216 80 view .LVU196
 750 001c 0013     		asrs	r0, r0, #12
 751              		.loc 1 216 89 view .LVU197
 752 001e 094B     		ldr	r3, .L28+8
 753 0020 B3F90030 		ldrsh	r3, [r3]
 754              		.loc 1 216 87 view .LVU198
ARM GAS  C:\Users\Dell\AppData\Local\Temp\cchSoRAE.s 			page 18


 755 0024 03FB00F0 		mul	r0, r3, r0
 756              		.loc 1 216 7 view .LVU199
 757 0028 8013     		asrs	r0, r0, #14
 758              	.LVL26:
 217:Core/Src/BME280_STM32.c **** 	t_fine = var1 + var2;
 759              		.loc 1 217 2 is_stmt 1 view .LVU200
 760              		.loc 1 217 16 is_stmt 0 view .LVU201
 761 002a 00EBE220 		add	r0, r0, r2, asr #11
 762              	.LVL27:
 763              		.loc 1 217 9 view .LVU202
 764 002e 064B     		ldr	r3, .L28+12
 765              	.LVL28:
 766              		.loc 1 217 9 view .LVU203
 767 0030 1860     		str	r0, [r3]
 218:Core/Src/BME280_STM32.c **** 	T = (t_fine * 5 + 128) >> 8;
 768              		.loc 1 218 2 is_stmt 1 view .LVU204
 769              		.loc 1 218 14 is_stmt 0 view .LVU205
 770 0032 00EB8000 		add	r0, r0, r0, lsl #2
 771              		.loc 1 218 18 view .LVU206
 772 0036 8030     		adds	r0, r0, #128
 773              	.LVL29:
 219:Core/Src/BME280_STM32.c **** 	return T;
 774              		.loc 1 219 2 is_stmt 1 view .LVU207
 220:Core/Src/BME280_STM32.c **** }
 775              		.loc 1 220 1 is_stmt 0 view .LVU208
 776 0038 0012     		asrs	r0, r0, #8
 777              	.LVL30:
 778              		.loc 1 220 1 view .LVU209
 779 003a 7047     		bx	lr
 780              	.L29:
 781              		.align	2
 782              	.L28:
 783 003c 00000000 		.word	dig_T1
 784 0040 00000000 		.word	dig_T2
 785 0044 00000000 		.word	dig_T3
 786 0048 00000000 		.word	t_fine
 787              		.cfi_endproc
 788              	.LFE69:
 790              		.global	__aeabi_ldivmod
 791              		.section	.text.BME280_compensate_P_int64,"ax",%progbits
 792              		.align	1
 793              		.global	BME280_compensate_P_int64
 794              		.syntax unified
 795              		.thumb
 796              		.thumb_func
 798              	BME280_compensate_P_int64:
 799              	.LVL31:
 800              	.LFB70:
 221:Core/Src/BME280_STM32.c **** 
 222:Core/Src/BME280_STM32.c **** 
 223:Core/Src/BME280_STM32.c **** #if SUPPORT_64BIT
 224:Core/Src/BME280_STM32.c **** /* Returns pressure in Pa as unsigned 32 bit integer in Q24.8 format (24 integer bits and 8 fractio
 225:Core/Src/BME280_STM32.c ****    Output value of “24674867” represents 24674867/256 = 96386.2 Pa = 963.862 hPa
 226:Core/Src/BME280_STM32.c **** */
 227:Core/Src/BME280_STM32.c **** uint32_t BME280_compensate_P_int64(int32_t adc_P)
 228:Core/Src/BME280_STM32.c **** {
 801              		.loc 1 228 1 is_stmt 1 view -0
ARM GAS  C:\Users\Dell\AppData\Local\Temp\cchSoRAE.s 			page 19


 802              		.cfi_startproc
 803              		@ args = 0, pretend = 0, frame = 0
 804              		@ frame_needed = 0, uses_anonymous_args = 0
 805              		.loc 1 228 1 is_stmt 0 view .LVU211
 806 0000 F8B5     		push	{r3, r4, r5, r6, r7, lr}
 807              	.LCFI14:
 808              		.cfi_def_cfa_offset 24
 809              		.cfi_offset 3, -24
 810              		.cfi_offset 4, -20
 811              		.cfi_offset 5, -16
 812              		.cfi_offset 6, -12
 813              		.cfi_offset 7, -8
 814              		.cfi_offset 14, -4
 229:Core/Src/BME280_STM32.c **** 	int64_t var1, var2, p;
 815              		.loc 1 229 2 is_stmt 1 view .LVU212
 230:Core/Src/BME280_STM32.c **** 	var1 = ((int64_t)t_fine) - 128000;
 816              		.loc 1 230 2 view .LVU213
 817              		.loc 1 230 10 is_stmt 0 view .LVU214
 818 0002 664B     		ldr	r3, .L34
 819 0004 1968     		ldr	r1, [r3]
 820 0006 CB17     		asrs	r3, r1, #31
 821              		.loc 1 230 7 view .LVU215
 822 0008 B1F5FA31 		subs	r1, r1, #128000
 823 000c 43F1FF33 		adc	r3, r3, #-1
 824              	.LVL32:
 231:Core/Src/BME280_STM32.c **** 	var2 = var1 * var1 * (int64_t)dig_P6;
 825              		.loc 1 231 2 is_stmt 1 view .LVU216
 826              		.loc 1 231 14 is_stmt 0 view .LVU217
 827 0010 01FB03F4 		mul	r4, r1, r3
 828 0014 A1FB0126 		umull	r2, r6, r1, r1
 829 0018 06EB4406 		add	r6, r6, r4, lsl #1
 830              		.loc 1 231 23 view .LVU218
 831 001c 604C     		ldr	r4, .L34+4
 832 001e B4F90050 		ldrsh	r5, [r4]
 833 0022 EC17     		asrs	r4, r5, #31
 834              		.loc 1 231 7 view .LVU219
 835 0024 02FB04F4 		mul	r4, r2, r4
 836 0028 05FB0644 		mla	r4, r5, r6, r4
 837 002c A2FB0575 		umull	r7, r5, r2, r5
 838 0030 2C44     		add	r4, r4, r5
 839              	.LVL33:
 232:Core/Src/BME280_STM32.c **** 	var2 = var2 + ((var1*(int64_t)dig_P5)<<17);
 840              		.loc 1 232 2 is_stmt 1 view .LVU220
 841              		.loc 1 232 23 is_stmt 0 view .LVU221
 842 0032 5C4D     		ldr	r5, .L34+8
 843 0034 B5F900C0 		ldrsh	ip, [r5]
 844 0038 4FEAEC75 		asr	r5, ip, #31
 845              		.loc 1 232 22 view .LVU222
 846 003c 0CFB03FE 		mul	lr, ip, r3
 847 0040 01FB05EE 		mla	lr, r1, r5, lr
 848 0044 ACFB01C5 		umull	ip, r5, ip, r1
 849 0048 AE44     		add	lr, lr, r5
 850              		.loc 1 232 39 view .LVU223
 851 004a 4FEA4E4E 		lsl	lr, lr, #17
 852 004e 4EEADC3E 		orr	lr, lr, ip, lsr #15
 853 0052 4FEA4C4C 		lsl	ip, ip, #17
 854              		.loc 1 232 7 view .LVU224
ARM GAS  C:\Users\Dell\AppData\Local\Temp\cchSoRAE.s 			page 20


 855 0056 1CEB070C 		adds	ip, ip, r7
 856 005a 44EB0E04 		adc	r4, r4, lr
 857              	.LVL34:
 233:Core/Src/BME280_STM32.c **** 	var2 = var2 + (((int64_t)dig_P4)<<35);
 858              		.loc 1 233 2 is_stmt 1 view .LVU225
 859              		.loc 1 233 18 is_stmt 0 view .LVU226
 860 005e 524D     		ldr	r5, .L34+12
 861 0060 B5F90050 		ldrsh	r5, [r5]
 862              		.loc 1 233 7 view .LVU227
 863 0064 04EBC504 		add	r4, r4, r5, lsl #3
 864              	.LVL35:
 234:Core/Src/BME280_STM32.c **** 	var1 = ((var1 * var1 * (int64_t)dig_P3)>>8) + ((var1 * (int64_t)dig_P2)<<12);
 865              		.loc 1 234 2 is_stmt 1 view .LVU228
 866              		.loc 1 234 25 is_stmt 0 view .LVU229
 867 0068 504D     		ldr	r5, .L34+16
 868 006a B5F900E0 		ldrsh	lr, [r5]
 869 006e 4FEAEE75 		asr	r5, lr, #31
 870              		.loc 1 234 23 view .LVU230
 871 0072 02FB05F5 		mul	r5, r2, r5
 872 0076 0EFB0655 		mla	r5, lr, r6, r5
 873 007a A2FB0E2E 		umull	r2, lr, r2, lr
 874 007e 7544     		add	r5, r5, lr
 875              		.loc 1 234 41 view .LVU231
 876 0080 120A     		lsrs	r2, r2, #8
 877 0082 42EA0562 		orr	r2, r2, r5, lsl #24
 878              		.loc 1 234 57 view .LVU232
 879 0086 4A4E     		ldr	r6, .L34+20
 880 0088 B6F900E0 		ldrsh	lr, [r6]
 881 008c 4FEAEE76 		asr	r6, lr, #31
 882              		.loc 1 234 55 view .LVU233
 883 0090 0EFB03F3 		mul	r3, lr, r3
 884              	.LVL36:
 885              		.loc 1 234 55 view .LVU234
 886 0094 01FB0633 		mla	r3, r1, r6, r3
 887 0098 AEFB01E1 		umull	lr, r1, lr, r1
 888              	.LVL37:
 889              		.loc 1 234 55 view .LVU235
 890 009c 0B44     		add	r3, r3, r1
 891              		.loc 1 234 73 view .LVU236
 892 009e 1B03     		lsls	r3, r3, #12
 893 00a0 43EA1E53 		orr	r3, r3, lr, lsr #20
 894 00a4 4FEA0E3E 		lsl	lr, lr, #12
 895              		.loc 1 234 7 view .LVU237
 896 00a8 12EB0E02 		adds	r2, r2, lr
 897 00ac 43EB2523 		adc	r3, r3, r5, asr #8
 898              	.LVL38:
 235:Core/Src/BME280_STM32.c **** 	var1 = (((((int64_t)1)<<47)+var1))*((int64_t)dig_P1)>>33;
 899              		.loc 1 235 2 is_stmt 1 view .LVU238
 900              		.loc 1 235 29 is_stmt 0 view .LVU239
 901 00b0 03F50043 		add	r3, r3, #32768
 902              	.LVL39:
 903              		.loc 1 235 38 view .LVU240
 904 00b4 3F49     		ldr	r1, .L34+24
 905 00b6 0D88     		ldrh	r5, [r1]
 906              		.loc 1 235 36 view .LVU241
 907 00b8 A2FB0521 		umull	r2, r1, r2, r5
 908              	.LVL40:
ARM GAS  C:\Users\Dell\AppData\Local\Temp\cchSoRAE.s 			page 21


 909              		.loc 1 235 36 view .LVU242
 910 00bc 05FB0311 		mla	r1, r5, r3, r1
 911              		.loc 1 235 7 view .LVU243
 912 00c0 4A10     		asrs	r2, r1, #1
 913 00c2 CB17     		asrs	r3, r1, #31
 914              	.LVL41:
 236:Core/Src/BME280_STM32.c **** 	if (var1 == 0)
 915              		.loc 1 236 2 is_stmt 1 view .LVU244
 916              		.loc 1 236 5 is_stmt 0 view .LVU245
 917 00c4 53EA6101 		orrs	r1, r3, r1, asr #1
 918 00c8 65D0     		beq	.L32
 237:Core/Src/BME280_STM32.c **** 	{
 238:Core/Src/BME280_STM32.c **** 		return 0; // avoid exception caused by division by zero
 239:Core/Src/BME280_STM32.c **** 	}
 240:Core/Src/BME280_STM32.c **** 	p = 1048576-adc_P;
 919              		.loc 1 240 2 is_stmt 1 view .LVU246
 920              		.loc 1 240 13 is_stmt 0 view .LVU247
 921 00ca C0F5801E 		rsb	lr, r0, #1048576
 922              	.LVL42:
 241:Core/Src/BME280_STM32.c **** 	p = (((p<<31)-var2)*3125)/var1;
 923              		.loc 1 241 2 is_stmt 1 view .LVU248
 924              		.loc 1 241 10 is_stmt 0 view .LVU249
 925 00ce 4FEA6E01 		asr	r1, lr, #1
 926 00d2 4FEACE7E 		lsl	lr, lr, #31
 927              	.LVL43:
 928              		.loc 1 241 15 view .LVU250
 929 00d6 BEEB0C0E 		subs	lr, lr, ip
 930 00da 61EB0404 		sbc	r4, r1, r4
 931              	.LVL44:
 932              		.loc 1 241 21 view .LVU251
 933 00de 1EEB0E0C 		adds	ip, lr, lr
 934              	.LVL45:
 935              		.loc 1 241 21 view .LVU252
 936 00e2 44EB0401 		adc	r1, r4, r4
 937 00e6 1CEB0E0C 		adds	ip, ip, lr
 938 00ea 44EB0101 		adc	r1, r4, r1
 939 00ee 8801     		lsls	r0, r1, #6
 940              	.LVL46:
 941              		.loc 1 241 21 view .LVU253
 942 00f0 40EA9C60 		orr	r0, r0, ip, lsr #26
 943 00f4 4FEA8C15 		lsl	r5, ip, #6
 944 00f8 1CEB050C 		adds	ip, ip, r5
 945 00fc 41EB0001 		adc	r1, r1, r0
 946 0100 8900     		lsls	r1, r1, #2
 947 0102 41EA9C71 		orr	r1, r1, ip, lsr #30
 948 0106 4FEA8C0C 		lsl	ip, ip, #2
 949 010a 1CEB0E0C 		adds	ip, ip, lr
 950 010e 44EB0101 		adc	r1, r4, r1
 951 0112 8900     		lsls	r1, r1, #2
 952 0114 41EA9C71 		orr	r1, r1, ip, lsr #30
 953 0118 4FEA8C00 		lsl	r0, ip, #2
 954 011c 10EB0E00 		adds	r0, r0, lr
 955              		.loc 1 241 4 view .LVU254
 956 0120 44EB0101 		adc	r1, r4, r1
 957 0124 FFF7FEFF 		bl	__aeabi_ldivmod
 958              	.LVL47:
 959              		.loc 1 241 4 view .LVU255
ARM GAS  C:\Users\Dell\AppData\Local\Temp\cchSoRAE.s 			page 22


 960 0128 0346     		mov	r3, r0
 961              	.LVL48:
 242:Core/Src/BME280_STM32.c **** 	var1 = (((int64_t)dig_P9) * (p>>13) * (p>>13)) >> 25;
 962              		.loc 1 242 2 is_stmt 1 view .LVU256
 963              		.loc 1 242 11 is_stmt 0 view .LVU257
 964 012a 234A     		ldr	r2, .L34+28
 965 012c B2F90050 		ldrsh	r5, [r2]
 966 0130 EF17     		asrs	r7, r5, #31
 967              		.loc 1 242 32 view .LVU258
 968 0132 420B     		lsrs	r2, r0, #13
 969 0134 42EAC142 		orr	r2, r2, r1, lsl #19
 970 0138 4E13     		asrs	r6, r1, #13
 971              		.loc 1 242 28 view .LVU259
 972 013a 05FB06F4 		mul	r4, r5, r6
 973 013e 02FB0744 		mla	r4, r2, r7, r4
 974 0142 A5FB0257 		umull	r5, r7, r5, r2
 975 0146 3C44     		add	r4, r4, r7
 976              		.loc 1 242 38 view .LVU260
 977 0148 02FB04F4 		mul	r4, r2, r4
 978 014c 05FB0644 		mla	r4, r5, r6, r4
 979 0150 A2FB0525 		umull	r2, r5, r2, r5
 980 0154 2C44     		add	r4, r4, r5
 981              		.loc 1 242 7 view .LVU261
 982 0156 520E     		lsrs	r2, r2, #25
 983 0158 42EAC412 		orr	r2, r2, r4, lsl #7
 984              	.LVL49:
 243:Core/Src/BME280_STM32.c **** 	var2 = (((int64_t)dig_P8) * p) >> 19;
 985              		.loc 1 243 2 is_stmt 1 view .LVU262
 986              		.loc 1 243 11 is_stmt 0 view .LVU263
 987 015c 174D     		ldr	r5, .L34+32
 988 015e B5F90050 		ldrsh	r5, [r5]
 989 0162 EF17     		asrs	r7, r5, #31
 990              		.loc 1 243 28 view .LVU264
 991 0164 05FB01F6 		mul	r6, r5, r1
 992 0168 07FB0060 		mla	r0, r7, r0, r6
 993              	.LVL50:
 994              		.loc 1 243 28 view .LVU265
 995 016c A5FB0356 		umull	r5, r6, r5, r3
 996 0170 3044     		add	r0, r0, r6
 997              		.loc 1 243 7 view .LVU266
 998 0172 ED0C     		lsrs	r5, r5, #19
 999 0174 45EA4035 		orr	r5, r5, r0, lsl #13
 1000              	.LVL51:
 244:Core/Src/BME280_STM32.c **** 	p = ((p + var1 + var2) >> 8) + (((int64_t)dig_P7)<<4);
 1001              		.loc 1 244 2 is_stmt 1 view .LVU267
 1002              		.loc 1 244 10 is_stmt 0 view .LVU268
 1003 0178 9B18     		adds	r3, r3, r2
 1004              	.LVL52:
 1005              		.loc 1 244 10 view .LVU269
 1006 017a 41EB6461 		adc	r1, r1, r4, asr #25
 1007              		.loc 1 244 17 view .LVU270
 1008 017e 5B19     		adds	r3, r3, r5
 1009 0180 41EBE041 		adc	r1, r1, r0, asr #19
 1010              		.loc 1 244 25 view .LVU271
 1011 0184 180A     		lsrs	r0, r3, #8
 1012              	.LVL53:
 1013              		.loc 1 244 25 view .LVU272
ARM GAS  C:\Users\Dell\AppData\Local\Temp\cchSoRAE.s 			page 23


 1014 0186 40EA0160 		orr	r0, r0, r1, lsl #24
 1015              		.loc 1 244 35 view .LVU273
 1016 018a 0D4B     		ldr	r3, .L34+36
 1017 018c B3F90030 		ldrsh	r3, [r3]
 1018              	.LVL54:
 245:Core/Src/BME280_STM32.c **** 	return (uint32_t)p;
 1019              		.loc 1 245 2 is_stmt 1 view .LVU274
 1020              		.loc 1 245 9 is_stmt 0 view .LVU275
 1021 0190 00EB0310 		add	r0, r0, r3, lsl #4
 1022              	.LVL55:
 1023              	.L30:
 246:Core/Src/BME280_STM32.c **** }
 1024              		.loc 1 246 1 view .LVU276
 1025 0194 F8BD     		pop	{r3, r4, r5, r6, r7, pc}
 1026              	.LVL56:
 1027              	.L32:
 238:Core/Src/BME280_STM32.c **** 	}
 1028              		.loc 1 238 10 view .LVU277
 1029 0196 0020     		movs	r0, #0
 1030              	.LVL57:
 238:Core/Src/BME280_STM32.c **** 	}
 1031              		.loc 1 238 10 view .LVU278
 1032 0198 FCE7     		b	.L30
 1033              	.L35:
 1034 019a 00BF     		.align	2
 1035              	.L34:
 1036 019c 00000000 		.word	t_fine
 1037 01a0 00000000 		.word	dig_P6
 1038 01a4 00000000 		.word	dig_P5
 1039 01a8 00000000 		.word	dig_P4
 1040 01ac 00000000 		.word	dig_P3
 1041 01b0 00000000 		.word	dig_P2
 1042 01b4 00000000 		.word	dig_P1
 1043 01b8 00000000 		.word	dig_P9
 1044 01bc 00000000 		.word	dig_P8
 1045 01c0 00000000 		.word	dig_P7
 1046              		.cfi_endproc
 1047              	.LFE70:
 1049              		.section	.text.bme280_compensate_H_int32,"ax",%progbits
 1050              		.align	1
 1051              		.global	bme280_compensate_H_int32
 1052              		.syntax unified
 1053              		.thumb
 1054              		.thumb_func
 1056              	bme280_compensate_H_int32:
 1057              	.LVL58:
 1058              	.LFB71:
 247:Core/Src/BME280_STM32.c **** 
 248:Core/Src/BME280_STM32.c **** #elif SUPPORT_32BIT
 249:Core/Src/BME280_STM32.c **** // Returns pressure in Pa as unsigned 32 bit integer. Output value of “96386” equals 96386 Pa =
 250:Core/Src/BME280_STM32.c **** uint32_t BME280_compensate_P_int32(int32_t adc_P)
 251:Core/Src/BME280_STM32.c **** {
 252:Core/Src/BME280_STM32.c **** 	int32_t var1, var2;
 253:Core/Src/BME280_STM32.c **** 	uint32_t p;
 254:Core/Src/BME280_STM32.c **** 	var1 = (((int32_t)t_fine)>>1) - (int32_t)64000;
 255:Core/Src/BME280_STM32.c **** 	var2 = (((var1>>2) * (var1>>2)) >> 11 ) * ((int32_t)dig_P6);
 256:Core/Src/BME280_STM32.c **** 	var2 = var2 + ((var1*((int32_t)dig_P5))<<1);
ARM GAS  C:\Users\Dell\AppData\Local\Temp\cchSoRAE.s 			page 24


 257:Core/Src/BME280_STM32.c **** 	var2 = (var2>>2)+(((int32_t)dig_P4)<<16);
 258:Core/Src/BME280_STM32.c **** 	var1 = (((dig_P3 * (((var1>>2) * (var1>>2)) >> 13 )) >> 3) + ((((int32_t)dig_P2) *var1)>>1))>>18;
 259:Core/Src/BME280_STM32.c **** 	var1 =((((32768+var1))*((int32_t)dig_P1))>>15);
 260:Core/Src/BME280_STM32.c **** 	if (var1 == 0)
 261:Core/Src/BME280_STM32.c **** 	{
 262:Core/Src/BME280_STM32.c **** 		return 0; // avoid exception caused by division by zero
 263:Core/Src/BME280_STM32.c **** 	}
 264:Core/Src/BME280_STM32.c **** 	p = (((uint32_t)(((int32_t)1048576)-adc_P)-(var2>>12)))*3125;
 265:Core/Src/BME280_STM32.c **** 	if (p < 0x80000000)
 266:Core/Src/BME280_STM32.c **** 	{
 267:Core/Src/BME280_STM32.c **** 		p = (p << 1) / ((uint32_t)var1);
 268:Core/Src/BME280_STM32.c **** 	}
 269:Core/Src/BME280_STM32.c **** 	else
 270:Core/Src/BME280_STM32.c **** 	{
 271:Core/Src/BME280_STM32.c **** 		p = (p / (uint32_t)var1) * 2;
 272:Core/Src/BME280_STM32.c **** 	}
 273:Core/Src/BME280_STM32.c **** 	var1 = (((int32_t)dig_P9) * ((int32_t)(((p>>3) * (p>>3))>>13)))>>12;
 274:Core/Src/BME280_STM32.c **** 	var2 = (((int32_t)(p>>2)) * ((int32_t)dig_P8))>>13;
 275:Core/Src/BME280_STM32.c **** 	p = (uint32_t)((int32_t)p + ((var1 + var2 + dig_P7) >> 4));
 276:Core/Src/BME280_STM32.c **** 	return p;
 277:Core/Src/BME280_STM32.c **** }
 278:Core/Src/BME280_STM32.c **** #endif
 279:Core/Src/BME280_STM32.c **** 
 280:Core/Src/BME280_STM32.c **** /* Returns humidity in %RH as unsigned 32 bit integer in Q22.10 format (22 integer and 10 fractiona
 281:Core/Src/BME280_STM32.c ****    Output value of “47445” represents 47445/1024 = 46.333 %RH
 282:Core/Src/BME280_STM32.c **** */
 283:Core/Src/BME280_STM32.c **** uint32_t bme280_compensate_H_int32(int32_t adc_H)
 284:Core/Src/BME280_STM32.c **** {
 1059              		.loc 1 284 1 is_stmt 1 view -0
 1060              		.cfi_startproc
 1061              		@ args = 0, pretend = 0, frame = 0
 1062              		@ frame_needed = 0, uses_anonymous_args = 0
 1063              		@ link register save eliminated.
 285:Core/Src/BME280_STM32.c **** 	int32_t v_x1_u32r;
 1064              		.loc 1 285 2 view .LVU280
 286:Core/Src/BME280_STM32.c **** 	v_x1_u32r = (t_fine - ((int32_t)76800));
 1065              		.loc 1 286 2 view .LVU281
 1066              		.loc 1 286 22 is_stmt 0 view .LVU282
 1067 0000 204B     		ldr	r3, .L37
 1068 0002 1968     		ldr	r1, [r3]
 1069              		.loc 1 286 12 view .LVU283
 1070 0004 A1F59631 		sub	r1, r1, #76800
 1071              	.LVL59:
 287:Core/Src/BME280_STM32.c **** 	v_x1_u32r = (((((adc_H << 14) - (((int32_t)dig_H4) << 20) - (((int32_t)dig_H5) *\
 1072              		.loc 1 287 2 is_stmt 1 view .LVU284
 1073              		.loc 1 287 36 is_stmt 0 view .LVU285
 1074 0008 1F4B     		ldr	r3, .L37+4
 1075 000a B3F90030 		ldrsh	r3, [r3]
 1076              		.loc 1 287 53 view .LVU286
 1077 000e 1B05     		lsls	r3, r3, #20
 1078              		.loc 1 287 32 view .LVU287
 1079 0010 C3EB8030 		rsb	r0, r3, r0, lsl #14
 1080              	.LVL60:
 1081              		.loc 1 287 64 view .LVU288
 1082 0014 1D4B     		ldr	r3, .L37+8
 1083 0016 B3F90030 		ldrsh	r3, [r3]
 1084              		.loc 1 287 60 view .LVU289
ARM GAS  C:\Users\Dell\AppData\Local\Temp\cchSoRAE.s 			page 25


 1085 001a 01FB1300 		mls	r0, r1, r3, r0
 288:Core/Src/BME280_STM32.c **** 			v_x1_u32r)) + ((int32_t)16384)) >> 15) * (((((((v_x1_u32r *\
 1086              		.loc 1 288 16 view .LVU290
 1087 001e 00F58040 		add	r0, r0, #16384
 1088              		.loc 1 288 36 view .LVU291
 1089 0022 C013     		asrs	r0, r0, #15
 289:Core/Src/BME280_STM32.c **** 					((int32_t)dig_H6)) >> 10) * (((v_x1_u32r * ((int32_t)dig_H3)) >> 11) +\
 1090              		.loc 1 289 7 view .LVU292
 1091 0024 1A4B     		ldr	r3, .L37+12
 1092 0026 B3F90030 		ldrsh	r3, [r3]
 288:Core/Src/BME280_STM32.c **** 			v_x1_u32r)) + ((int32_t)16384)) >> 15) * (((((((v_x1_u32r *\
 1093              		.loc 1 288 62 view .LVU293
 1094 002a 01FB03F3 		mul	r3, r1, r3
 1095              		.loc 1 289 25 view .LVU294
 1096 002e 9B12     		asrs	r3, r3, #10
 1097              		.loc 1 289 50 view .LVU295
 1098 0030 184A     		ldr	r2, .L37+16
 1099 0032 1288     		ldrh	r2, [r2]
 1100              		.loc 1 289 47 view .LVU296
 1101 0034 01FB02F2 		mul	r2, r1, r2
 1102              		.loc 1 289 68 view .LVU297
 1103 0038 D212     		asrs	r2, r2, #11
 1104              		.loc 1 289 75 view .LVU298
 1105 003a 02F50042 		add	r2, r2, #32768
 1106              		.loc 1 289 32 view .LVU299
 1107 003e 02FB03F3 		mul	r3, r2, r3
 290:Core/Src/BME280_STM32.c **** 							((int32_t)32768))) >> 10) + ((int32_t)2097152)) * ((int32_t)dig_H2) +\
 1108              		.loc 1 290 27 view .LVU300
 1109 0042 9B12     		asrs	r3, r3, #10
 1110              		.loc 1 290 34 view .LVU301
 1111 0044 03F50013 		add	r3, r3, #2097152
 1112              		.loc 1 290 59 view .LVU302
 1113 0048 134A     		ldr	r2, .L37+20
 1114 004a B2F90020 		ldrsh	r2, [r2]
 1115              		.loc 1 290 56 view .LVU303
 1116 004e 02FB03F3 		mul	r3, r2, r3
 1117              		.loc 1 290 76 view .LVU304
 1118 0052 03F50053 		add	r3, r3, #8192
 291:Core/Src/BME280_STM32.c **** 					8192) >> 14));
 1119              		.loc 1 291 12 view .LVU305
 1120 0056 9B13     		asrs	r3, r3, #14
 287:Core/Src/BME280_STM32.c **** 			v_x1_u32r)) + ((int32_t)16384)) >> 15) * (((((((v_x1_u32r *\
 1121              		.loc 1 287 12 view .LVU306
 1122 0058 03FB00F0 		mul	r0, r3, r0
 1123              	.LVL61:
 292:Core/Src/BME280_STM32.c **** 	v_x1_u32r = (v_x1_u32r - (((((v_x1_u32r >> 15) * (v_x1_u32r >> 15)) >> 7) *\
 1124              		.loc 1 292 2 is_stmt 1 view .LVU307
 1125              		.loc 1 292 42 is_stmt 0 view .LVU308
 1126 005c C313     		asrs	r3, r0, #15
 1127              		.loc 1 292 49 view .LVU309
 1128 005e 03FB03F3 		mul	r3, r3, r3
 1129              		.loc 1 292 70 view .LVU310
 1130 0062 DB11     		asrs	r3, r3, #7
 293:Core/Src/BME280_STM32.c **** 			((int32_t)dig_H1)) >> 4));
 1131              		.loc 1 293 5 view .LVU311
 1132 0064 0D4A     		ldr	r2, .L37+24
 1133 0066 1288     		ldrh	r2, [r2]
ARM GAS  C:\Users\Dell\AppData\Local\Temp\cchSoRAE.s 			page 26


 292:Core/Src/BME280_STM32.c **** 	v_x1_u32r = (v_x1_u32r - (((((v_x1_u32r >> 15) * (v_x1_u32r >> 15)) >> 7) *\
 1134              		.loc 1 292 76 view .LVU312
 1135 0068 02FB03F3 		mul	r3, r2, r3
 292:Core/Src/BME280_STM32.c **** 	v_x1_u32r = (v_x1_u32r - (((((v_x1_u32r >> 15) * (v_x1_u32r >> 15)) >> 7) *\
 1136              		.loc 1 292 12 view .LVU313
 1137 006c A0EB2310 		sub	r0, r0, r3, asr #4
 1138              	.LVL62:
 294:Core/Src/BME280_STM32.c **** 	v_x1_u32r = (v_x1_u32r < 0 ? 0 : v_x1_u32r);
 1139              		.loc 1 294 2 is_stmt 1 view .LVU314
 1140              		.loc 1 294 12 is_stmt 0 view .LVU315
 1141 0070 20EAE070 		bic	r0, r0, r0, asr #31
 1142              	.LVL63:
 295:Core/Src/BME280_STM32.c **** 	v_x1_u32r = (v_x1_u32r > 419430400 ? 419430400 : v_x1_u32r);
 1143              		.loc 1 295 2 is_stmt 1 view .LVU316
 1144              		.loc 1 295 12 is_stmt 0 view .LVU317
 1145 0074 B0F1C85F 		cmp	r0, #419430400
 1146 0078 A8BF     		it	ge
 1147 007a 4FF0C850 		movge	r0, #419430400
 1148              	.LVL64:
 296:Core/Src/BME280_STM32.c **** 	return (uint32_t)(v_x1_u32r>>12);
 1149              		.loc 1 296 2 is_stmt 1 view .LVU318
 297:Core/Src/BME280_STM32.c **** }
 1150              		.loc 1 297 1 is_stmt 0 view .LVU319
 1151 007e 0013     		asrs	r0, r0, #12
 1152              	.LVL65:
 1153              		.loc 1 297 1 view .LVU320
 1154 0080 7047     		bx	lr
 1155              	.L38:
 1156 0082 00BF     		.align	2
 1157              	.L37:
 1158 0084 00000000 		.word	t_fine
 1159 0088 00000000 		.word	dig_H4
 1160 008c 00000000 		.word	dig_H5
 1161 0090 00000000 		.word	dig_H6
 1162 0094 00000000 		.word	dig_H3
 1163 0098 00000000 		.word	dig_H2
 1164 009c 00000000 		.word	dig_H1
 1165              		.cfi_endproc
 1166              	.LFE71:
 1168              		.global	__aeabi_i2d
 1169              		.global	__aeabi_ddiv
 1170              		.global	__aeabi_d2f
 1171              		.global	__aeabi_ui2d
 1172              		.global	__aeabi_dmul
 1173              		.section	.text.BME280_Measure,"ax",%progbits
 1174              		.align	1
 1175              		.global	BME280_Measure
 1176              		.syntax unified
 1177              		.thumb
 1178              		.thumb_func
 1180              	BME280_Measure:
 1181              	.LFB72:
 298:Core/Src/BME280_STM32.c **** /**************************************************************************************************
 299:Core/Src/BME280_STM32.c **** 
 300:Core/Src/BME280_STM32.c **** 
 301:Core/Src/BME280_STM32.c **** /* measure the temp, pressure and humidity
 302:Core/Src/BME280_STM32.c ****  * the values will be stored in the parameters passed to the function
ARM GAS  C:\Users\Dell\AppData\Local\Temp\cchSoRAE.s 			page 27


 303:Core/Src/BME280_STM32.c ****  */
 304:Core/Src/BME280_STM32.c **** void BME280_Measure(void)
 305:Core/Src/BME280_STM32.c **** {
 1182              		.loc 1 305 1 is_stmt 1 view -0
 1183              		.cfi_startproc
 1184              		@ args = 0, pretend = 0, frame = 0
 1185              		@ frame_needed = 0, uses_anonymous_args = 0
 1186 0000 08B5     		push	{r3, lr}
 1187              	.LCFI15:
 1188              		.cfi_def_cfa_offset 8
 1189              		.cfi_offset 3, -8
 1190              		.cfi_offset 14, -4
 306:Core/Src/BME280_STM32.c **** 	// Đọc dữ liệu raw
 307:Core/Src/BME280_STM32.c **** 	if (BMEReadRaw() == 0)
 1191              		.loc 1 307 2 view .LVU322
 1192              		.loc 1 307 6 is_stmt 0 view .LVU323
 1193 0002 FFF7FEFF 		bl	BMEReadRaw
 1194              	.LVL66:
 1195              		.loc 1 307 5 discriminator 1 view .LVU324
 1196 0006 48BB     		cbnz	r0, .L39
 308:Core/Src/BME280_STM32.c **** 	{
 309:Core/Src/BME280_STM32.c **** 		// Xử lý nhiệt độ
 310:Core/Src/BME280_STM32.c **** 		if (tRaw == 0x800000)
 1197              		.loc 1 310 3 is_stmt 1 view .LVU325
 1198              		.loc 1 310 12 is_stmt 0 view .LVU326
 1199 0008 1F4B     		ldr	r3, .L49
 1200 000a 1868     		ldr	r0, [r3]
 1201              		.loc 1 310 6 view .LVU327
 1202 000c B0F5000F 		cmp	r0, #8388608
 1203 0010 25D1     		bne	.L41
 311:Core/Src/BME280_STM32.c **** 			Temperature = 0; // Nếu đo nhiệt độ bị tắt
 1204              		.loc 1 311 4 is_stmt 1 view .LVU328
 1205              		.loc 1 311 16 is_stmt 0 view .LVU329
 1206 0012 1E4B     		ldr	r3, .L49+4
 1207 0014 0022     		movs	r2, #0
 1208 0016 1A60     		str	r2, [r3]	@ float
 1209              	.L42:
 312:Core/Src/BME280_STM32.c **** 		else
 313:Core/Src/BME280_STM32.c **** 			Temperature = (BME280_compensate_T_int32(tRaw)) / 100.0; // Tính toán nhiệt độ
 314:Core/Src/BME280_STM32.c **** 
 315:Core/Src/BME280_STM32.c **** 		// Xử lý áp suất
 316:Core/Src/BME280_STM32.c **** 		if (pRaw == 0x800000)
 1210              		.loc 1 316 3 is_stmt 1 view .LVU330
 1211              		.loc 1 316 12 is_stmt 0 view .LVU331
 1212 0018 1D4B     		ldr	r3, .L49+8
 1213 001a 1868     		ldr	r0, [r3]
 1214              		.loc 1 316 6 view .LVU332
 1215 001c B0F5000F 		cmp	r0, #8388608
 1216 0020 2AD0     		beq	.L47
 317:Core/Src/BME280_STM32.c **** 			Pressure = 0; // Nếu đo áp suất bị tắt
 318:Core/Src/BME280_STM32.c **** 		else
 319:Core/Src/BME280_STM32.c **** 		{
 320:Core/Src/BME280_STM32.c **** #if SUPPORT_64BIT
 321:Core/Src/BME280_STM32.c **** 			Pressure = (BME280_compensate_P_int64(pRaw)) / 256.0; // Tính toán áp suất cho 64 bit
 1217              		.loc 1 321 4 is_stmt 1 view .LVU333
 1218              		.loc 1 321 16 is_stmt 0 view .LVU334
 1219 0022 FFF7FEFF 		bl	BME280_compensate_P_int64
ARM GAS  C:\Users\Dell\AppData\Local\Temp\cchSoRAE.s 			page 28


 1220              	.LVL67:
 1221              		.loc 1 321 49 discriminator 1 view .LVU335
 1222 0026 FFF7FEFF 		bl	__aeabi_ui2d
 1223              	.LVL68:
 1224 002a 0022     		movs	r2, #0
 1225 002c 194B     		ldr	r3, .L49+12
 1226 002e FFF7FEFF 		bl	__aeabi_dmul
 1227              	.LVL69:
 1228 0032 FFF7FEFF 		bl	__aeabi_d2f
 1229              	.LVL70:
 1230              		.loc 1 321 13 discriminator 1 view .LVU336
 1231 0036 184B     		ldr	r3, .L49+16
 1232 0038 1860     		str	r0, [r3]	@ float
 1233              	.L44:
 322:Core/Src/BME280_STM32.c **** #elif SUPPORT_32BIT
 323:Core/Src/BME280_STM32.c **** 			Pressure = (BME280_compensate_P_int32(pRaw)); // Tính toán áp suất cho 32 bit
 324:Core/Src/BME280_STM32.c **** #endif
 325:Core/Src/BME280_STM32.c **** 		}
 326:Core/Src/BME280_STM32.c **** 
 327:Core/Src/BME280_STM32.c **** 		// Xử lý độ ẩm
 328:Core/Src/BME280_STM32.c **** 		if (hRaw == 0x8000)
 1234              		.loc 1 328 3 is_stmt 1 view .LVU337
 1235              		.loc 1 328 12 is_stmt 0 view .LVU338
 1236 003a 184B     		ldr	r3, .L49+20
 1237 003c 1868     		ldr	r0, [r3]
 1238              		.loc 1 328 6 view .LVU339
 1239 003e B0F5004F 		cmp	r0, #32768
 1240 0042 1DD0     		beq	.L48
 329:Core/Src/BME280_STM32.c **** 			Humidity = 0; // Nếu đo độ ẩm bị tắt
 330:Core/Src/BME280_STM32.c **** 		else
 331:Core/Src/BME280_STM32.c **** 			Humidity = (bme280_compensate_H_int32(hRaw)) / 1024.0; // Tính toán độ ẩm
 1241              		.loc 1 331 4 is_stmt 1 view .LVU340
 1242              		.loc 1 331 16 is_stmt 0 view .LVU341
 1243 0044 FFF7FEFF 		bl	bme280_compensate_H_int32
 1244              	.LVL71:
 1245              		.loc 1 331 49 discriminator 1 view .LVU342
 1246 0048 FFF7FEFF 		bl	__aeabi_ui2d
 1247              	.LVL72:
 1248 004c 0022     		movs	r2, #0
 1249 004e 144B     		ldr	r3, .L49+24
 1250 0050 FFF7FEFF 		bl	__aeabi_dmul
 1251              	.LVL73:
 1252 0054 FFF7FEFF 		bl	__aeabi_d2f
 1253              	.LVL74:
 1254              		.loc 1 331 13 discriminator 1 view .LVU343
 1255 0058 124B     		ldr	r3, .L49+28
 1256 005a 1860     		str	r0, [r3]	@ float
 1257              	.L39:
 332:Core/Src/BME280_STM32.c **** 
 333:Core/Src/BME280_STM32.c **** 	}
 334:Core/Src/BME280_STM32.c **** }
 1258              		.loc 1 334 1 view .LVU344
 1259 005c 08BD     		pop	{r3, pc}
 1260              	.L41:
 313:Core/Src/BME280_STM32.c **** 
 1261              		.loc 1 313 4 is_stmt 1 view .LVU345
 313:Core/Src/BME280_STM32.c **** 
ARM GAS  C:\Users\Dell\AppData\Local\Temp\cchSoRAE.s 			page 29


 1262              		.loc 1 313 19 is_stmt 0 view .LVU346
 1263 005e FFF7FEFF 		bl	BME280_compensate_T_int32
 1264              	.LVL75:
 313:Core/Src/BME280_STM32.c **** 
 1265              		.loc 1 313 52 discriminator 1 view .LVU347
 1266 0062 FFF7FEFF 		bl	__aeabi_i2d
 1267              	.LVL76:
 1268 0066 0022     		movs	r2, #0
 1269 0068 0F4B     		ldr	r3, .L49+32
 1270 006a FFF7FEFF 		bl	__aeabi_ddiv
 1271              	.LVL77:
 1272 006e FFF7FEFF 		bl	__aeabi_d2f
 1273              	.LVL78:
 313:Core/Src/BME280_STM32.c **** 
 1274              		.loc 1 313 16 discriminator 1 view .LVU348
 1275 0072 064B     		ldr	r3, .L49+4
 1276 0074 1860     		str	r0, [r3]	@ float
 1277 0076 CFE7     		b	.L42
 1278              	.L47:
 317:Core/Src/BME280_STM32.c **** 		else
 1279              		.loc 1 317 4 is_stmt 1 view .LVU349
 317:Core/Src/BME280_STM32.c **** 		else
 1280              		.loc 1 317 13 is_stmt 0 view .LVU350
 1281 0078 074B     		ldr	r3, .L49+16
 1282 007a 0022     		movs	r2, #0
 1283 007c 1A60     		str	r2, [r3]	@ float
 1284 007e DCE7     		b	.L44
 1285              	.L48:
 329:Core/Src/BME280_STM32.c **** 		else
 1286              		.loc 1 329 4 is_stmt 1 view .LVU351
 329:Core/Src/BME280_STM32.c **** 		else
 1287              		.loc 1 329 13 is_stmt 0 view .LVU352
 1288 0080 084B     		ldr	r3, .L49+28
 1289 0082 0022     		movs	r2, #0
 1290 0084 1A60     		str	r2, [r3]	@ float
 1291 0086 E9E7     		b	.L39
 1292              	.L50:
 1293              		.align	2
 1294              	.L49:
 1295 0088 00000000 		.word	tRaw
 1296 008c 00000000 		.word	Temperature
 1297 0090 00000000 		.word	pRaw
 1298 0094 0000703F 		.word	1064304640
 1299 0098 00000000 		.word	Pressure
 1300 009c 00000000 		.word	hRaw
 1301 00a0 0000503F 		.word	1062207488
 1302 00a4 00000000 		.word	Humidity
 1303 00a8 00005940 		.word	1079574528
 1304              		.cfi_endproc
 1305              	.LFE72:
 1307              		.section	.rodata.checkChipID.str1.4,"aMS",%progbits,1
 1308              		.align	2
 1309              	.LC0:
 1310 0000 43686970 		.ascii	"Chip ID: 0x%02X\012\000"
 1310      2049443A 
 1310      20307825 
 1310      3032580A 
ARM GAS  C:\Users\Dell\AppData\Local\Temp\cchSoRAE.s 			page 30


 1310      00
 1311              		.section	.text.checkChipID,"ax",%progbits
 1312              		.align	1
 1313              		.global	checkChipID
 1314              		.syntax unified
 1315              		.thumb
 1316              		.thumb_func
 1318              	checkChipID:
 1319              	.LFB73:
 335:Core/Src/BME280_STM32.c **** 
 336:Core/Src/BME280_STM32.c **** int checkChipID(void)
 337:Core/Src/BME280_STM32.c **** {
 1320              		.loc 1 337 1 is_stmt 1 view -0
 1321              		.cfi_startproc
 1322              		@ args = 0, pretend = 0, frame = 0
 1323              		@ frame_needed = 0, uses_anonymous_args = 0
 1324 0000 10B5     		push	{r4, lr}
 1325              	.LCFI16:
 1326              		.cfi_def_cfa_offset 8
 1327              		.cfi_offset 4, -8
 1328              		.cfi_offset 14, -4
 1329 0002 84B0     		sub	sp, sp, #16
 1330              	.LCFI17:
 1331              		.cfi_def_cfa_offset 24
 338:Core/Src/BME280_STM32.c **** 	// Đọc chip ID
 339:Core/Src/BME280_STM32.c **** 	HAL_I2C_Mem_Read(&hi2c1, BME280_ADDRESS, ID_REG, 1, &chipID, 1, HAL_MAX_DELAY);
 1332              		.loc 1 339 2 view .LVU354
 1333 0004 4FF0FF33 		mov	r3, #-1
 1334 0008 0293     		str	r3, [sp, #8]
 1335 000a 0123     		movs	r3, #1
 1336 000c 0193     		str	r3, [sp, #4]
 1337 000e 0C4C     		ldr	r4, .L56
 1338 0010 0094     		str	r4, [sp]
 1339 0012 D022     		movs	r2, #208
 1340 0014 EC21     		movs	r1, #236
 1341 0016 0B48     		ldr	r0, .L56+4
 1342 0018 FFF7FEFF 		bl	HAL_I2C_Mem_Read
 1343              	.LVL79:
 340:Core/Src/BME280_STM32.c **** 
 341:Core/Src/BME280_STM32.c **** 	// In ra giá trị chip ID
 342:Core/Src/BME280_STM32.c **** 	printf("Chip ID: 0x%02X\n", chipID);
 1344              		.loc 1 342 2 view .LVU355
 1345 001c 2178     		ldrb	r1, [r4]	@ zero_extendqisi2
 1346 001e 0A48     		ldr	r0, .L56+8
 1347 0020 FFF7FEFF 		bl	printf
 1348              	.LVL80:
 343:Core/Src/BME280_STM32.c **** 
 344:Core/Src/BME280_STM32.c **** 	// Kiểm tra giá trị chip ID
 345:Core/Src/BME280_STM32.c **** 	if (chipID == 0x60 || chipID == 0x58)
 1349              		.loc 1 345 2 view .LVU356
 1350              		.loc 1 345 13 is_stmt 0 view .LVU357
 1351 0024 2378     		ldrb	r3, [r4]	@ zero_extendqisi2
 1352              		.loc 1 345 5 view .LVU358
 1353 0026 602B     		cmp	r3, #96
 1354 0028 04D0     		beq	.L53
 1355              		.loc 1 345 21 discriminator 1 view .LVU359
 1356 002a 582B     		cmp	r3, #88
ARM GAS  C:\Users\Dell\AppData\Local\Temp\cchSoRAE.s 			page 31


 1357 002c 04D1     		bne	.L54
 346:Core/Src/BME280_STM32.c **** 	{
 347:Core/Src/BME280_STM32.c **** 		return 0; // Cảm biến hợp lệ
 1358              		.loc 1 347 10 view .LVU360
 1359 002e 0020     		movs	r0, #0
 1360              	.L51:
 348:Core/Src/BME280_STM32.c **** 	}
 349:Core/Src/BME280_STM32.c **** 	else
 350:Core/Src/BME280_STM32.c **** 	{
 351:Core/Src/BME280_STM32.c **** 		return -1; // Cảm biến không hợp lệ
 352:Core/Src/BME280_STM32.c **** 	}
 353:Core/Src/BME280_STM32.c **** }
 1361              		.loc 1 353 1 view .LVU361
 1362 0030 04B0     		add	sp, sp, #16
 1363              	.LCFI18:
 1364              		.cfi_remember_state
 1365              		.cfi_def_cfa_offset 8
 1366              		@ sp needed
 1367 0032 10BD     		pop	{r4, pc}
 1368              	.L53:
 1369              	.LCFI19:
 1370              		.cfi_restore_state
 347:Core/Src/BME280_STM32.c **** 	}
 1371              		.loc 1 347 10 view .LVU362
 1372 0034 0020     		movs	r0, #0
 1373 0036 FBE7     		b	.L51
 1374              	.L54:
 351:Core/Src/BME280_STM32.c **** 	}
 1375              		.loc 1 351 10 view .LVU363
 1376 0038 4FF0FF30 		mov	r0, #-1
 1377 003c F8E7     		b	.L51
 1378              	.L57:
 1379 003e 00BF     		.align	2
 1380              	.L56:
 1381 0040 00000000 		.word	chipID
 1382 0044 00000000 		.word	hi2c1
 1383 0048 00000000 		.word	.LC0
 1384              		.cfi_endproc
 1385              	.LFE73:
 1387              		.global	t_fine
 1388              		.section	.bss.t_fine,"aw",%nobits
 1389              		.align	2
 1392              	t_fine:
 1393 0000 00000000 		.space	4
 1394              		.global	dig_H6
 1395              		.section	.bss.dig_H6,"aw",%nobits
 1396              		.align	1
 1399              	dig_H6:
 1400 0000 0000     		.space	2
 1401              		.global	dig_H5
 1402              		.section	.bss.dig_H5,"aw",%nobits
 1403              		.align	1
 1406              	dig_H5:
 1407 0000 0000     		.space	2
 1408              		.global	dig_H4
 1409              		.section	.bss.dig_H4,"aw",%nobits
 1410              		.align	1
ARM GAS  C:\Users\Dell\AppData\Local\Temp\cchSoRAE.s 			page 32


 1413              	dig_H4:
 1414 0000 0000     		.space	2
 1415              		.global	dig_H2
 1416              		.section	.bss.dig_H2,"aw",%nobits
 1417              		.align	1
 1420              	dig_H2:
 1421 0000 0000     		.space	2
 1422              		.global	dig_P9
 1423              		.section	.bss.dig_P9,"aw",%nobits
 1424              		.align	1
 1427              	dig_P9:
 1428 0000 0000     		.space	2
 1429              		.global	dig_P8
 1430              		.section	.bss.dig_P8,"aw",%nobits
 1431              		.align	1
 1434              	dig_P8:
 1435 0000 0000     		.space	2
 1436              		.global	dig_P7
 1437              		.section	.bss.dig_P7,"aw",%nobits
 1438              		.align	1
 1441              	dig_P7:
 1442 0000 0000     		.space	2
 1443              		.global	dig_P6
 1444              		.section	.bss.dig_P6,"aw",%nobits
 1445              		.align	1
 1448              	dig_P6:
 1449 0000 0000     		.space	2
 1450              		.global	dig_P5
 1451              		.section	.bss.dig_P5,"aw",%nobits
 1452              		.align	1
 1455              	dig_P5:
 1456 0000 0000     		.space	2
 1457              		.global	dig_P4
 1458              		.section	.bss.dig_P4,"aw",%nobits
 1459              		.align	1
 1462              	dig_P4:
 1463 0000 0000     		.space	2
 1464              		.global	dig_P3
 1465              		.section	.bss.dig_P3,"aw",%nobits
 1466              		.align	1
 1469              	dig_P3:
 1470 0000 0000     		.space	2
 1471              		.global	dig_P2
 1472              		.section	.bss.dig_P2,"aw",%nobits
 1473              		.align	1
 1476              	dig_P2:
 1477 0000 0000     		.space	2
 1478              		.global	dig_T3
 1479              		.section	.bss.dig_T3,"aw",%nobits
 1480              		.align	1
 1483              	dig_T3:
 1484 0000 0000     		.space	2
 1485              		.global	dig_T2
 1486              		.section	.bss.dig_T2,"aw",%nobits
 1487              		.align	1
 1490              	dig_T2:
 1491 0000 0000     		.space	2
ARM GAS  C:\Users\Dell\AppData\Local\Temp\cchSoRAE.s 			page 33


 1492              		.global	dig_H3
 1493              		.section	.bss.dig_H3,"aw",%nobits
 1494              		.align	1
 1497              	dig_H3:
 1498 0000 0000     		.space	2
 1499              		.global	dig_H1
 1500              		.section	.bss.dig_H1,"aw",%nobits
 1501              		.align	1
 1504              	dig_H1:
 1505 0000 0000     		.space	2
 1506              		.global	dig_P1
 1507              		.section	.bss.dig_P1,"aw",%nobits
 1508              		.align	1
 1511              	dig_P1:
 1512 0000 0000     		.space	2
 1513              		.global	dig_T1
 1514              		.section	.bss.dig_T1,"aw",%nobits
 1515              		.align	1
 1518              	dig_T1:
 1519 0000 0000     		.space	2
 1520              		.global	hRaw
 1521              		.section	.bss.hRaw,"aw",%nobits
 1522              		.align	2
 1525              	hRaw:
 1526 0000 00000000 		.space	4
 1527              		.global	pRaw
 1528              		.section	.bss.pRaw,"aw",%nobits
 1529              		.align	2
 1532              	pRaw:
 1533 0000 00000000 		.space	4
 1534              		.global	tRaw
 1535              		.section	.bss.tRaw,"aw",%nobits
 1536              		.align	2
 1539              	tRaw:
 1540 0000 00000000 		.space	4
 1541              		.global	TrimParam
 1542              		.section	.bss.TrimParam,"aw",%nobits
 1543              		.align	2
 1546              	TrimParam:
 1547 0000 00000000 		.space	36
 1547      00000000 
 1547      00000000 
 1547      00000000 
 1547      00000000 
 1548              		.global	chipID
 1549              		.section	.bss.chipID,"aw",%nobits
 1552              	chipID:
 1553 0000 00       		.space	1
 1554              		.text
 1555              	.Letext0:
 1556              		.file 2 "C:/Users/Dell/Downloads/arm-gnu-toolchain-13.3.rel1-mingw-w64-i686-arm-none-eabi/arm-none
 1557              		.file 3 "C:/Users/Dell/Downloads/arm-gnu-toolchain-13.3.rel1-mingw-w64-i686-arm-none-eabi/arm-none
 1558              		.file 4 "Drivers/CMSIS/Device/ST/STM32F1xx/Include/stm32f103xb.h"
 1559              		.file 5 "Drivers/STM32F1xx_HAL_Driver/Inc/stm32f1xx_hal_def.h"
 1560              		.file 6 "Drivers/STM32F1xx_HAL_Driver/Inc/stm32f1xx_hal_dma.h"
 1561              		.file 7 "Drivers/STM32F1xx_HAL_Driver/Inc/stm32f1xx_hal_i2c.h"
 1562              		.file 8 "Drivers/STM32F1xx_HAL_Driver/Inc/stm32f1xx_hal.h"
ARM GAS  C:\Users\Dell\AppData\Local\Temp\cchSoRAE.s 			page 34


 1563              		.file 9 "<built-in>"
ARM GAS  C:\Users\Dell\AppData\Local\Temp\cchSoRAE.s 			page 35

